
C:\Users\igor.hollaender\Documents\GitHub\STiM32\objdebug\STiM32.o:     file format elf32-littlearm
C:\Users\igor.hollaender\Documents\GitHub\STiM32\objdebug\STiM32.o


Disassembly of section .text.STIMULATOR_Handler:

00000000 <STIMULATOR_Handler>:
STIMULATOR_Handler():
C:\Users\igor.hollaender\Documents\GitHub\STiM32/STiM32.c:277
* Description    : Generates single pulse sequence and reads the feedback signal
* Input          : None
* Return         : Readout 
*******************************************************************************/
void STIMULATOR_Handler( void ) 
{
   0:	b580      	push	{r7, lr}
   2:	b082      	sub	sp, #8
   4:	af00      	add	r7, sp, #0
C:\Users\igor.hollaender\Documents\GitHub\STiM32/STiM32.c:281
static u32 state_change_cnt = 0;
static u32 frequency_cnt = 0;

if((frequency_cnt++) % PulseSeq.frequency_divider)
   6:	4b50      	ldr	r3, [pc, #320]	; (148 <STIMULATOR_Handler+0x148>)
   8:	681b      	ldr	r3, [r3, #0]
   a:	1c59      	adds	r1, r3, #1
   c:	4a4e      	ldr	r2, [pc, #312]	; (148 <STIMULATOR_Handler+0x148>)
   e:	6011      	str	r1, [r2, #0]
  10:	4a4e      	ldr	r2, [pc, #312]	; (14c <STIMULATOR_Handler+0x14c>)
  12:	8892      	ldrh	r2, [r2, #4]
  14:	fbb3 f1f2 	udiv	r1, r3, r2
  18:	fb02 f201 	mul.w	r2, r2, r1
  1c:	1a9b      	subs	r3, r3, r2
  1e:	2b00      	cmp	r3, #0
  20:	d000      	beq.n	24 <STIMULATOR_Handler+0x24>
C:\Users\igor.hollaender\Documents\GitHub\STiM32/STiM32.c:283
            {
            return;
  22:	e08e      	b.n	142 <STIMULATOR_Handler+0x142>
C:\Users\igor.hollaender\Documents\GitHub\STiM32/STiM32.c:331
    
#else        

    // Real code using connected hardware
                    
    switch(PulseSeq.sequence_multiplicity)
  24:	4b49      	ldr	r3, [pc, #292]	; (14c <STIMULATOR_Handler+0x14c>)
  26:	799b      	ldrb	r3, [r3, #6]
  28:	2b00      	cmp	r3, #0
  2a:	d002      	beq.n	32 <STIMULATOR_Handler+0x32>
  2c:	2b01      	cmp	r3, #1
  2e:	d003      	beq.n	38 <STIMULATOR_Handler+0x38>
  30:	e010      	b.n	54 <STIMULATOR_Handler+0x54>
C:\Users\igor.hollaender\Documents\GitHub\STiM32/STiM32.c:334
    {        
        case SEQUENCEMULTIPLICITY_SINGLE:
            GeneratePulseSequenceAndReadCAE();        
  32:	f7ff fffe 	bl	0 <STIMULATOR_Handler>
C:\Users\igor.hollaender\Documents\GitHub\STiM32/STiM32.c:335
            break;
  36:	e00d      	b.n	1e <STIMULATOR_Handler+0x1e>
C:\Users\igor.hollaender\Documents\GitHub\STiM32/STiM32.c:338
        
        case SEQUENCEMULTIPLICITY_DOUBLE:
            GeneratePulseSequenceAndReadCAE();        
  38:	f7ff fffe 	bl	0 <STIMULATOR_Handler>
C:\Users\igor.hollaender\Documents\GitHub\STiM32/STiM32.c:339
            {u32 i; WHILE_DELAY_LOOP(PulseSeq.delay_between_sequences_loop_counts)}
  3c:	4b43      	ldr	r3, [pc, #268]	; (14c <STIMULATOR_Handler+0x14c>)
  3e:	89db      	ldrh	r3, [r3, #14]
  40:	607b      	str	r3, [r7, #4]
  42:	bf00      	nop
C:\Users\igor.hollaender\Documents\GitHub\STiM32/STiM32.c:339 (discriminator 1)
  44:	687b      	ldr	r3, [r7, #4]
  46:	1e5a      	subs	r2, r3, #1
  48:	607a      	str	r2, [r7, #4]
  4a:	2b00      	cmp	r3, #0
  4c:	d1fa      	bne.n	44 <STIMULATOR_Handler+0x44>
C:\Users\igor.hollaender\Documents\GitHub\STiM32/STiM32.c:340
            GeneratePulseSequenceAndReadCAE();        
  4e:	f7ff fffe 	bl	0 <STIMULATOR_Handler>
C:\Users\igor.hollaender\Documents\GitHub\STiM32/STiM32.c:341
            break;
  52:	bf00      	nop
C:\Users\igor.hollaender\Documents\GitHub\STiM32/STiM32.c:346
    }   
                    
#endif
        
    switch(StimState)
  54:	4b3e      	ldr	r3, [pc, #248]	; (150 <STIMULATOR_Handler+0x150>)
  56:	781b      	ldrb	r3, [r3, #0]
  58:	2b03      	cmp	r3, #3
  5a:	d872      	bhi.n	142 <STIMULATOR_Handler+0x142>
  5c:	a201      	add	r2, pc, #4	; (adr r2, 64 <STIMULATOR_Handler+0x64>)
  5e:	f852 f023 	ldr.w	pc, [r2, r3, lsl #2]
  62:	bf00      	nop
  64:	00000075 	.word	0x00000075
  68:	000000ad 	.word	0x000000ad
  6c:	00000115 	.word	0x00000115
  70:	000000e5 	.word	0x000000e5
C:\Users\igor.hollaender\Documents\GitHub\STiM32/STiM32.c:350
    {
        case STIMSTATE_IDLE:  
        
                LED_Set( LED_RED, LED_ON);                
  74:	4b37      	ldr	r3, [pc, #220]	; (154 <STIMULATOR_Handler+0x154>)
  76:	681b      	ldr	r3, [r3, #0]
  78:	f8d3 3180 	ldr.w	r3, [r3, #384]	; 0x180
  7c:	2001      	movs	r0, #1
  7e:	2101      	movs	r1, #1
  80:	4798      	blx	r3
C:\Users\igor.hollaender\Documents\GitHub\STiM32/STiM32.c:351
                LED_Set( LED_GREEN, LED_OFF);           
  82:	4b34      	ldr	r3, [pc, #208]	; (154 <STIMULATOR_Handler+0x154>)
  84:	681b      	ldr	r3, [r3, #0]
  86:	f8d3 3180 	ldr.w	r3, [r3, #384]	; 0x180
  8a:	2000      	movs	r0, #0
  8c:	2100      	movs	r1, #0
  8e:	4798      	blx	r3
C:\Users\igor.hollaender\Documents\GitHub\STiM32/STiM32.c:355
                            
        
                // check if still idle    
                if(Readout.CAE1 >= ReadoutLimit_CAE1_for_Run)
  90:	4b31      	ldr	r3, [pc, #196]	; (158 <STIMULATOR_Handler+0x158>)
  92:	681a      	ldr	r2, [r3, #0]
  94:	4b31      	ldr	r3, [pc, #196]	; (15c <STIMULATOR_Handler+0x15c>)
  96:	881b      	ldrh	r3, [r3, #0]
  98:	429a      	cmp	r2, r3
  9a:	d306      	bcc.n	aa <STIMULATOR_Handler+0xaa>
C:\Users\igor.hollaender\Documents\GitHub\STiM32/STiM32.c:357
                    {
                    StimState = STIMSTATE_WAITING_FOR_RUN;
  9c:	4b2c      	ldr	r3, [pc, #176]	; (150 <STIMULATOR_Handler+0x150>)
  9e:	2202      	movs	r2, #2
  a0:	701a      	strb	r2, [r3, #0]
C:\Users\igor.hollaender\Documents\GitHub\STiM32/STiM32.c:358
                    state_change_cnt = 0;
  a2:	4b2f      	ldr	r3, [pc, #188]	; (160 <STIMULATOR_Handler+0x160>)
  a4:	2200      	movs	r2, #0
  a6:	601a      	str	r2, [r3, #0]
C:\Users\igor.hollaender\Documents\GitHub\STiM32/STiM32.c:360
                    }
                break;
  a8:	e04b      	b.n	142 <STIMULATOR_Handler+0x142>
  aa:	e04a      	b.n	142 <STIMULATOR_Handler+0x142>
C:\Users\igor.hollaender\Documents\GitHub\STiM32/STiM32.c:364
        
        case STIMSTATE_RUN:  
            
                LED_Set( LED_RED, LED_OFF);                
  ac:	4b29      	ldr	r3, [pc, #164]	; (154 <STIMULATOR_Handler+0x154>)
  ae:	681b      	ldr	r3, [r3, #0]
  b0:	f8d3 3180 	ldr.w	r3, [r3, #384]	; 0x180
  b4:	2001      	movs	r0, #1
  b6:	2100      	movs	r1, #0
  b8:	4798      	blx	r3
C:\Users\igor.hollaender\Documents\GitHub\STiM32/STiM32.c:365
                LED_Set( LED_GREEN, LED_ON);                
  ba:	4b26      	ldr	r3, [pc, #152]	; (154 <STIMULATOR_Handler+0x154>)
  bc:	681b      	ldr	r3, [r3, #0]
  be:	f8d3 3180 	ldr.w	r3, [r3, #384]	; 0x180
  c2:	2000      	movs	r0, #0
  c4:	2101      	movs	r1, #1
  c6:	4798      	blx	r3
C:\Users\igor.hollaender\Documents\GitHub\STiM32/STiM32.c:369
                                                              
        
                // check if still running
                if(Readout.CAE1 <= ReadoutLimit_CAE1_for_Idle)
  c8:	4b23      	ldr	r3, [pc, #140]	; (158 <STIMULATOR_Handler+0x158>)
  ca:	681a      	ldr	r2, [r3, #0]
  cc:	4b25      	ldr	r3, [pc, #148]	; (164 <STIMULATOR_Handler+0x164>)
  ce:	881b      	ldrh	r3, [r3, #0]
  d0:	429a      	cmp	r2, r3
  d2:	d806      	bhi.n	e2 <STIMULATOR_Handler+0xe2>
C:\Users\igor.hollaender\Documents\GitHub\STiM32/STiM32.c:371
                    {
                    StimState = STIMSTATE_WAITING_FOR_IDLE;
  d4:	4b1e      	ldr	r3, [pc, #120]	; (150 <STIMULATOR_Handler+0x150>)
  d6:	2203      	movs	r2, #3
  d8:	701a      	strb	r2, [r3, #0]
C:\Users\igor.hollaender\Documents\GitHub\STiM32/STiM32.c:372
                    state_change_cnt = 0;
  da:	4b21      	ldr	r3, [pc, #132]	; (160 <STIMULATOR_Handler+0x160>)
  dc:	2200      	movs	r2, #0
  de:	601a      	str	r2, [r3, #0]
C:\Users\igor.hollaender\Documents\GitHub\STiM32/STiM32.c:374
                    }                
                break;
  e0:	e02f      	b.n	142 <STIMULATOR_Handler+0x142>
  e2:	e02e      	b.n	142 <STIMULATOR_Handler+0x142>
C:\Users\igor.hollaender\Documents\GitHub\STiM32/STiM32.c:377
                
        case STIMSTATE_WAITING_FOR_IDLE:  
                if(Readout.CAE1 > ReadoutLimit_CAE1_for_Idle)
  e4:	4b1c      	ldr	r3, [pc, #112]	; (158 <STIMULATOR_Handler+0x158>)
  e6:	681a      	ldr	r2, [r3, #0]
  e8:	4b1e      	ldr	r3, [pc, #120]	; (164 <STIMULATOR_Handler+0x164>)
  ea:	881b      	ldrh	r3, [r3, #0]
  ec:	429a      	cmp	r2, r3
  ee:	d903      	bls.n	f8 <STIMULATOR_Handler+0xf8>
C:\Users\igor.hollaender\Documents\GitHub\STiM32/STiM32.c:379
                    {
                    StimState = STIMSTATE_RUN;
  f0:	4b17      	ldr	r3, [pc, #92]	; (150 <STIMULATOR_Handler+0x150>)
  f2:	2201      	movs	r2, #1
  f4:	701a      	strb	r2, [r3, #0]
  f6:	e00c      	b.n	112 <STIMULATOR_Handler+0x112>
C:\Users\igor.hollaender\Documents\GitHub\STiM32/STiM32.c:382
                    }
                else                    
                    if(++state_change_cnt == STATECHANGE_CNT_LIMIT)
  f8:	4b19      	ldr	r3, [pc, #100]	; (160 <STIMULATOR_Handler+0x160>)
  fa:	681b      	ldr	r3, [r3, #0]
  fc:	1c5a      	adds	r2, r3, #1
  fe:	4b18      	ldr	r3, [pc, #96]	; (160 <STIMULATOR_Handler+0x160>)
 100:	601a      	str	r2, [r3, #0]
 102:	4b17      	ldr	r3, [pc, #92]	; (160 <STIMULATOR_Handler+0x160>)
 104:	681b      	ldr	r3, [r3, #0]
 106:	2b0a      	cmp	r3, #10
 108:	d103      	bne.n	112 <STIMULATOR_Handler+0x112>
C:\Users\igor.hollaender\Documents\GitHub\STiM32/STiM32.c:384
                        {
                        StimState = STIMSTATE_IDLE;
 10a:	4b11      	ldr	r3, [pc, #68]	; (150 <STIMULATOR_Handler+0x150>)
 10c:	2200      	movs	r2, #0
 10e:	701a      	strb	r2, [r3, #0]
C:\Users\igor.hollaender\Documents\GitHub\STiM32/STiM32.c:386
                        }                                          
                break;
 110:	e017      	b.n	142 <STIMULATOR_Handler+0x142>
 112:	e016      	b.n	142 <STIMULATOR_Handler+0x142>
C:\Users\igor.hollaender\Documents\GitHub\STiM32/STiM32.c:389
                    
        case STIMSTATE_WAITING_FOR_RUN:  
                if(Readout.CAE1 < ReadoutLimit_CAE1_for_Run)
 114:	4b10      	ldr	r3, [pc, #64]	; (158 <STIMULATOR_Handler+0x158>)
 116:	681a      	ldr	r2, [r3, #0]
 118:	4b10      	ldr	r3, [pc, #64]	; (15c <STIMULATOR_Handler+0x15c>)
 11a:	881b      	ldrh	r3, [r3, #0]
 11c:	429a      	cmp	r2, r3
 11e:	d203      	bcs.n	128 <STIMULATOR_Handler+0x128>
C:\Users\igor.hollaender\Documents\GitHub\STiM32/STiM32.c:391
                    {
                    StimState = STIMSTATE_IDLE;
 120:	4b0b      	ldr	r3, [pc, #44]	; (150 <STIMULATOR_Handler+0x150>)
 122:	2200      	movs	r2, #0
 124:	701a      	strb	r2, [r3, #0]
 126:	e00b      	b.n	140 <STIMULATOR_Handler+0x140>
C:\Users\igor.hollaender\Documents\GitHub\STiM32/STiM32.c:394
                    }
                else                    
                    if(++state_change_cnt == STATECHANGE_CNT_LIMIT)
 128:	4b0d      	ldr	r3, [pc, #52]	; (160 <STIMULATOR_Handler+0x160>)
 12a:	681b      	ldr	r3, [r3, #0]
 12c:	1c5a      	adds	r2, r3, #1
 12e:	4b0c      	ldr	r3, [pc, #48]	; (160 <STIMULATOR_Handler+0x160>)
 130:	601a      	str	r2, [r3, #0]
 132:	4b0b      	ldr	r3, [pc, #44]	; (160 <STIMULATOR_Handler+0x160>)
 134:	681b      	ldr	r3, [r3, #0]
 136:	2b0a      	cmp	r3, #10
 138:	d102      	bne.n	140 <STIMULATOR_Handler+0x140>
C:\Users\igor.hollaender\Documents\GitHub\STiM32/STiM32.c:396
                        {
                        StimState = STIMSTATE_RUN;
 13a:	4b05      	ldr	r3, [pc, #20]	; (150 <STIMULATOR_Handler+0x150>)
 13c:	2201      	movs	r2, #1
 13e:	701a      	strb	r2, [r3, #0]
C:\Users\igor.hollaender\Documents\GitHub\STiM32/STiM32.c:398
                        }                                          
                break;
 140:	bf00      	nop
C:\Users\igor.hollaender\Documents\GitHub\STiM32/STiM32.c:401
    }

}
 142:	3708      	adds	r7, #8
 144:	46bd      	mov	sp, r7
 146:	bd80      	pop	{r7, pc}
 148:	00000164 	.word	0x00000164
 14c:	00000004 	.word	0x00000004
 150:	00000034 	.word	0x00000034
 154:	00000000 	.word	0x00000000
 158:	0000002c 	.word	0x0000002c
 15c:	00000036 	.word	0x00000036
 160:	00000168 	.word	0x00000168
 164:	00000038 	.word	0x00000038

Disassembly of section .text.Application_Ini:

00000000 <Application_Ini>:
Application_Ini():
C:\Users\igor.hollaender\Documents\GitHub\STiM32/STiM32.c:411
*                  be called only once by CircleOS.
* Input          : None
* Return         : MENU_CONTINUE_COMMAND
*******************************************************************************/
enum MENU_code Application_Ini(void)
    {        
   0:	b580      	push	{r7, lr}
   2:	b086      	sub	sp, #24
   4:	af00      	add	r7, sp, #0
C:\Users\igor.hollaender\Documents\GitHub\STiM32/STiM32.c:413

    LCD_SetOffset(OFFSET_OFF);
   6:	4b50      	ldr	r3, [pc, #320]	; (148 <Application_Ini+0x148>)
   8:	681b      	ldr	r3, [r3, #0]
   a:	f8d3 3150 	ldr.w	r3, [r3, #336]	; 0x150
   e:	2000      	movs	r0, #0
  10:	4798      	blx	r3
C:\Users\igor.hollaender\Documents\GitHub\STiM32/STiM32.c:415
    
    UTIL_SetDividerHandler(MENU_SCHHDL_ID, 10);             //  10 is default
  12:	4b4d      	ldr	r3, [pc, #308]	; (148 <Application_Ini+0x148>)
  14:	681b      	ldr	r3, [r3, #0]
  16:	f8d3 3334 	ldr.w	r3, [r3, #820]	; 0x334
  1a:	2004      	movs	r0, #4
  1c:	210a      	movs	r1, #10
  1e:	4798      	blx	r3
C:\Users\igor.hollaender\Documents\GitHub\STiM32/STiM32.c:416
    MENU_SetAppliDivider( 10 );                             // This application will be called every 10*10 =100 SysTicks
  20:	4b49      	ldr	r3, [pc, #292]	; (148 <Application_Ini+0x148>)
  22:	681b      	ldr	r3, [r3, #0]
  24:	f8d3 32b8 	ldr.w	r3, [r3, #696]	; 0x2b8
  28:	200a      	movs	r0, #10
  2a:	4798      	blx	r3
C:\Users\igor.hollaender\Documents\GitHub\STiM32/STiM32.c:417
    UTIL_SetSchHandler(STIMULATOR_HANDLER_ID, STIMULATOR_Handler );
  2c:	4b46      	ldr	r3, [pc, #280]	; (148 <Application_Ini+0x148>)
  2e:	681b      	ldr	r3, [r3, #0]
  30:	f8d3 32ec 	ldr.w	r3, [r3, #748]	; 0x2ec
  34:	4a45      	ldr	r2, [pc, #276]	; (14c <Application_Ini+0x14c>)
  36:	200d      	movs	r0, #13
  38:	4611      	mov	r1, r2
  3a:	4798      	blx	r3
C:\Users\igor.hollaender\Documents\GitHub\STiM32/STiM32.c:418
    UTIL_SetDividerHandler(STIMULATOR_HANDLER_ID, 1);       // This handler will be called every single SysTick
  3c:	4b42      	ldr	r3, [pc, #264]	; (148 <Application_Ini+0x148>)
  3e:	681b      	ldr	r3, [r3, #0]
  40:	f8d3 3334 	ldr.w	r3, [r3, #820]	; 0x334
  44:	200d      	movs	r0, #13
  46:	2101      	movs	r1, #1
  48:	4798      	blx	r3
C:\Users\igor.hollaender\Documents\GitHub\STiM32/STiM32.c:420
    
    UTIL_SetPll(SPEED_VERY_HIGH);                           // CPU frequency is 120MHz; Systick frequency is 3kHZ
  4a:	4b3f      	ldr	r3, [pc, #252]	; (148 <Application_Ini+0x148>)
  4c:	681b      	ldr	r3, [r3, #0]
  4e:	f8d3 32c0 	ldr.w	r3, [r3, #704]	; 0x2c0
  52:	2005      	movs	r0, #5
  54:	4798      	blx	r3
C:\Users\igor.hollaender\Documents\GitHub\STiM32/STiM32.c:423
                                                            // see EvoPrimer Manual for STM32F429ZI
    
    LCD_SetRotateScreen( 1 );
  56:	4b3c      	ldr	r3, [pc, #240]	; (148 <Application_Ini+0x148>)
  58:	681b      	ldr	r3, [r3, #0]
  5a:	f8d3 3130 	ldr.w	r3, [r3, #304]	; 0x130
  5e:	2001      	movs	r0, #1
  60:	4798      	blx	r3
C:\Users\igor.hollaender\Documents\GitHub\STiM32/STiM32.c:424
    SetAutorun();
  62:	f7ff fffe 	bl	0 <Application_Ini>
C:\Users\igor.hollaender\Documents\GitHub\STiM32/STiM32.c:430
    
    //-------------------------------------
    // Initialize ...
              
    // ... set frequency and pulse sequence   
    RestoreParameters();  
  66:	f7ff fffe 	bl	0 <Application_Ini>
C:\Users\igor.hollaender\Documents\GitHub\STiM32/STiM32.c:431
    UpdatePulseSequence();    
  6a:	f7ff fffe 	bl	0 <Application_Ini>
C:\Users\igor.hollaender\Documents\GitHub\STiM32/STiM32.c:434
    
    // ... GUI    
    GUI(GUI_INITIALIZE,0);
  6e:	2000      	movs	r0, #0
  70:	2100      	movs	r1, #0
  72:	f7ff fffe 	bl	0 <Application_Ini>
C:\Users\igor.hollaender\Documents\GitHub\STiM32/STiM32.c:437
    
    // ... request mechanism
    ActualPendingRequest = PENDING_REQUEST_NONE;
  76:	4b36      	ldr	r3, [pc, #216]	; (150 <Application_Ini+0x150>)
  78:	2200      	movs	r2, #0
  7a:	701a      	strb	r2, [r3, #0]
C:\Users\igor.hollaender\Documents\GitHub\STiM32/STiM32.c:440
    
    // ... state machine
    StimState = STIMSTATE_IDLE; 
  7c:	4b35      	ldr	r3, [pc, #212]	; (154 <Application_Ini+0x154>)
  7e:	2200      	movs	r2, #0
  80:	701a      	strb	r2, [r3, #0]
C:\Users\igor.hollaender\Documents\GitHub\STiM32/STiM32.c:443
    
    // ... readout limits
    ReadoutLimit_CAE1_for_Run = 150;
  82:	4b35      	ldr	r3, [pc, #212]	; (158 <Application_Ini+0x158>)
  84:	2296      	movs	r2, #150	; 0x96
  86:	801a      	strh	r2, [r3, #0]
C:\Users\igor.hollaender\Documents\GitHub\STiM32/STiM32.c:444
    ReadoutLimit_CAE1_for_Idle = 170;
  88:	4b34      	ldr	r3, [pc, #208]	; (15c <Application_Ini+0x15c>)
  8a:	22aa      	movs	r2, #170	; 0xaa
  8c:	801a      	strh	r2, [r3, #0]
C:\Users\igor.hollaender\Documents\GitHub\STiM32/STiM32.c:448

    // ... miscellaneous    

    ActualBatteryVoltagemV = UTIL_GetBat();
  8e:	4b2e      	ldr	r3, [pc, #184]	; (148 <Application_Ini+0x148>)
  90:	681b      	ldr	r3, [r3, #0]
  92:	f8d3 32dc 	ldr.w	r3, [r3, #732]	; 0x2dc
  96:	4798      	blx	r3
  98:	4603      	mov	r3, r0
  9a:	b29a      	uxth	r2, r3
  9c:	4b30      	ldr	r3, [pc, #192]	; (160 <Application_Ini+0x160>)
  9e:	801a      	strh	r2, [r3, #0]
C:\Users\igor.hollaender\Documents\GitHub\STiM32/STiM32.c:450
    
    RTC_SetTime(0,0,0);  //IH150126 this clears any preset RTC ... but we do not care in our app
  a0:	4b29      	ldr	r3, [pc, #164]	; (148 <Application_Ini+0x148>)
  a2:	681b      	ldr	r3, [r3, #0]
  a4:	f8d3 3300 	ldr.w	r3, [r3, #768]	; 0x300
  a8:	2000      	movs	r0, #0
  aa:	2100      	movs	r1, #0
  ac:	2200      	movs	r2, #0
  ae:	4798      	blx	r3
C:\Users\igor.hollaender\Documents\GitHub\STiM32/STiM32.c:469
    
    // SPI Setup
    
    tCX_SPI_Config s_SpiInit;
    
    s_SpiInit.Speed = CX_SPI_Mode_VeryHigh;             // The speed range of the serial bit rate.
  b0:	2304      	movs	r3, #4
  b2:	703b      	strb	r3, [r7, #0]
C:\Users\igor.hollaender\Documents\GitHub\STiM32/STiM32.c:470
    s_SpiInit.WordLength = CX_SPI_8_Bits;               // The number of transferred data bit. Standard is 8, but could be 16 for some specific devices.
  b4:	2300      	movs	r3, #0
  b6:	707b      	strb	r3, [r7, #1]
C:\Users\igor.hollaender\Documents\GitHub\STiM32/STiM32.c:471
    s_SpiInit.Mode = CX_SPI_MODE_MASTER;                // 1: master, 0: slave
  b8:	2301      	movs	r3, #1
  ba:	70bb      	strb	r3, [r7, #2]
C:\Users\igor.hollaender\Documents\GitHub\STiM32/STiM32.c:472
    s_SpiInit.Polarity = CX_SPI_POL_LOW;                // Indicates the steady state (idle state of the clock when no transmission).
  bc:	2300      	movs	r3, #0
  be:	70fb      	strb	r3, [r7, #3]
C:\Users\igor.hollaender\Documents\GitHub\STiM32/STiM32.c:473
    s_SpiInit.Phase = CX_SPI_PHA_FIRST;                 // Phase:  0 indicates that the first edge of the clock when leaving the idle state is active
  c0:	2300      	movs	r3, #0
  c2:	713b      	strb	r3, [r7, #4]
C:\Users\igor.hollaender\Documents\GitHub\STiM32/STiM32.c:475
                                                        //         1 indicates that the second edge of the clock when leaving the idle state is active
    s_SpiInit.MSB1LSB0 = CX_SPI_MSBFIRST;               // First bit to be sent.  1: MSB first, 0: LSB first
  c4:	2300      	movs	r3, #0
  c6:	717b      	strb	r3, [r7, #5]
C:\Users\igor.hollaender\Documents\GitHub\STiM32/STiM32.c:476
    s_SpiInit.Nss = CX_SPI_Soft;                        // NSS signal management : 1 = by hardware (NSS pin), 0 = by software using the SSI bit
  c8:	2300      	movs	r3, #0
  ca:	71bb      	strb	r3, [r7, #6]
C:\Users\igor.hollaender\Documents\GitHub\STiM32/STiM32.c:479
                                                        // IH141230 this must be set to CX_SPI_Soft, but the actual didgital potentiometer
                                                        // update is triggered by rising edge of NSS bit (PIN8)
    s_SpiInit.RxBuffer = MyFifoRxBuffer;                // Rolling buffer to be used for reception
  cc:	4b25      	ldr	r3, [pc, #148]	; (164 <Application_Ini+0x164>)
  ce:	60bb      	str	r3, [r7, #8]
C:\Users\igor.hollaender\Documents\GitHub\STiM32/STiM32.c:480
    s_SpiInit.RxBufferLen = sizeof( MyFifoRxBuffer );   // Size of the receive buffer
  d0:	2380      	movs	r3, #128	; 0x80
  d2:	60fb      	str	r3, [r7, #12]
C:\Users\igor.hollaender\Documents\GitHub\STiM32/STiM32.c:481
    s_SpiInit.TxBuffer = MyFifoTxBuffer;                // Buffer to be used for transmission
  d4:	4b24      	ldr	r3, [pc, #144]	; (168 <Application_Ini+0x168>)
  d6:	613b      	str	r3, [r7, #16]
C:\Users\igor.hollaender\Documents\GitHub\STiM32/STiM32.c:482
    s_SpiInit.TxBufferLen = sizeof( MyFifoRxBuffer );   // Size
  d8:	2380      	movs	r3, #128	; 0x80
  da:	617b      	str	r3, [r7, #20]
C:\Users\igor.hollaender\Documents\GitHub\STiM32/STiM32.c:484

    CX_Configure( CX_SPI,  &s_SpiInit, 0 );
  dc:	4b1a      	ldr	r3, [pc, #104]	; (148 <Application_Ini+0x148>)
  de:	681b      	ldr	r3, [r3, #0]
  e0:	f8d3 3220 	ldr.w	r3, [r3, #544]	; 0x220
  e4:	463a      	mov	r2, r7
  e6:	2021      	movs	r0, #33	; 0x21
  e8:	4611      	mov	r1, r2
  ea:	2200      	movs	r2, #0
  ec:	4798      	blx	r3
C:\Users\igor.hollaender\Documents\GitHub\STiM32/STiM32.c:487
                            
    // NSS (aka CS(neg)) pin setup                        
    CX_Configure( CX_GPIO_PIN8, CX_GPIO_Mode_OUT_PP, 0 );  //Push-pull mode    
  ee:	4b16      	ldr	r3, [pc, #88]	; (148 <Application_Ini+0x148>)
  f0:	681b      	ldr	r3, [r3, #0]
  f2:	f8d3 3220 	ldr.w	r3, [r3, #544]	; 0x220
  f6:	2008      	movs	r0, #8
  f8:	2104      	movs	r1, #4
  fa:	2200      	movs	r2, #0
  fc:	4798      	blx	r3
C:\Users\igor.hollaender\Documents\GitHub\STiM32/STiM32.c:488
    CX_Write( CX_GPIO_PIN8, CX_GPIO_HIGH, 0 );             // initial NSS state is HIGH
  fe:	4b12      	ldr	r3, [pc, #72]	; (148 <Application_Ini+0x148>)
 100:	681b      	ldr	r3, [r3, #0]
 102:	f8d3 3224 	ldr.w	r3, [r3, #548]	; 0x224
 106:	2008      	movs	r0, #8
 108:	2101      	movs	r1, #1
 10a:	2200      	movs	r2, #0
 10c:	4798      	blx	r3
C:\Users\igor.hollaender\Documents\GitHub\STiM32/STiM32.c:492
    
    // ADC Setup
   
    CX_Configure( CX_ADC1,  0 , 0 );
 10e:	4b0e      	ldr	r3, [pc, #56]	; (148 <Application_Ini+0x148>)
 110:	681b      	ldr	r3, [r3, #0]
 112:	f8d3 3220 	ldr.w	r3, [r3, #544]	; 0x220
 116:	2023      	movs	r0, #35	; 0x23
 118:	2100      	movs	r1, #0
 11a:	2200      	movs	r2, #0
 11c:	4798      	blx	r3
C:\Users\igor.hollaender\Documents\GitHub\STiM32/STiM32.c:500
 
    //-------------------------------------
    
    //--- at start, show intro screen for 2 seconds
        
    ActualPendingRequest = PENDING_REQUEST_SHOWING_INTRO_SCREEN;
 11e:	4b0c      	ldr	r3, [pc, #48]	; (150 <Application_Ini+0x150>)
 120:	2202      	movs	r2, #2
 122:	701a      	strb	r2, [r3, #0]
C:\Users\igor.hollaender\Documents\GitHub\STiM32/STiM32.c:501
    GUI(GUI_INTRO_SCREEN,0);                                                     
 124:	2003      	movs	r0, #3
 126:	2100      	movs	r1, #0
 128:	f7ff fffe 	bl	0 <Application_Ini>
C:\Users\igor.hollaender\Documents\GitHub\STiM32/STiM32.c:502
    UTIL_SetTimer(2000,TimerHandler1);
 12c:	4b06      	ldr	r3, [pc, #24]	; (148 <Application_Ini+0x148>)
 12e:	681b      	ldr	r3, [r3, #0]
 130:	f8d3 3328 	ldr.w	r3, [r3, #808]	; 0x328
 134:	4a0d      	ldr	r2, [pc, #52]	; (16c <Application_Ini+0x16c>)
 136:	f44f 60fa 	mov.w	r0, #2000	; 0x7d0
 13a:	4611      	mov	r1, r2
 13c:	4798      	blx	r3
C:\Users\igor.hollaender\Documents\GitHub\STiM32/STiM32.c:504
        
    return MENU_CONTINUE_COMMAND;
 13e:	2304      	movs	r3, #4
C:\Users\igor.hollaender\Documents\GitHub\STiM32/STiM32.c:505
    }
 140:	4618      	mov	r0, r3
 142:	3718      	adds	r7, #24
 144:	46bd      	mov	sp, r7
 146:	bd80      	pop	{r7, pc}
	...
 154:	00000034 	.word	0x00000034
 158:	00000036 	.word	0x00000036
 15c:	00000038 	.word	0x00000038
 160:	0000003a 	.word	0x0000003a
 164:	0000003c 	.word	0x0000003c
 168:	000000bc 	.word	0x000000bc
 16c:	00000000 	.word	0x00000000

Disassembly of section .text.Application_Handler:

00000000 <Application_Handler>:
Application_Handler():
C:\Users\igor.hollaender\Documents\GitHub\STiM32/STiM32.c:516
*                  every multiple of SysTisk by CircleOS while it returns MENU_CONTINUE.
* Input          : None
* Return         : MENU_CONTINUE
*******************************************************************************/
enum MENU_code Application_Handler(void)
    {
   0:	b580      	push	{r7, lr}
   2:	af00      	add	r7, sp, #0
C:\Users\igor.hollaender\Documents\GitHub\STiM32/STiM32.c:524
    
    static int GUIUpdate_cnt = 0;    
        
  
    // process special requests first    
    switch(ActualPendingRequest)
   4:	4b22      	ldr	r3, [pc, #136]	; (90 <Application_Handler+0x90>)
   6:	781b      	ldrb	r3, [r3, #0]
   8:	2b01      	cmp	r3, #1
   a:	d003      	beq.n	14 <Application_Handler+0x14>
   c:	2b02      	cmp	r3, #2
   e:	d00f      	beq.n	30 <Application_Handler+0x30>
  10:	2b00      	cmp	r3, #0
C:\Users\igor.hollaender\Documents\GitHub\STiM32/STiM32.c:527
    {
        case PENDING_REQUEST_NONE:  // this is default; continue
            break;
  12:	e00f      	b.n	34 <Application_Handler+0x34>
C:\Users\igor.hollaender\Documents\GitHub\STiM32/STiM32.c:531
                              
        case PENDING_REQUEST_REDRAW:  
            
            BUTTON_SetMode( BUTTON_ONOFF ) ;            
  14:	4b1f      	ldr	r3, [pc, #124]	; (94 <Application_Handler+0x94>)
  16:	681b      	ldr	r3, [r3, #0]
  18:	f8d3 3204 	ldr.w	r3, [r3, #516]	; 0x204
  1c:	2000      	movs	r0, #0
  1e:	4798      	blx	r3
C:\Users\igor.hollaender\Documents\GitHub\STiM32/STiM32.c:532
            ActualPendingRequest = PENDING_REQUEST_NONE;           
  20:	4b1b      	ldr	r3, [pc, #108]	; (90 <Application_Handler+0x90>)
  22:	2200      	movs	r2, #0
  24:	701a      	strb	r2, [r3, #0]
C:\Users\igor.hollaender\Documents\GitHub\STiM32/STiM32.c:533
            GUI(GUI_CLEAR,0);                                                     
  26:	2002      	movs	r0, #2
  28:	2100      	movs	r1, #0
  2a:	f7ff fffe 	bl	0 <Application_Handler>
C:\Users\igor.hollaender\Documents\GitHub\STiM32/STiM32.c:534
            break;       
  2e:	e001      	b.n	34 <Application_Handler+0x34>
C:\Users\igor.hollaender\Documents\GitHub\STiM32/STiM32.c:537
        
        case PENDING_REQUEST_SHOWING_INTRO_SCREEN:            
            return MENU_CONTINUE;
  30:	2301      	movs	r3, #1
  32:	e02a      	b.n	8a <Application_Handler+0x8a>
C:\Users\igor.hollaender\Documents\GitHub\STiM32/STiM32.c:543
    }
  
    // normal processing    
    if (!(GUIUpdate_cnt % GUIUPDATE_DIVIDER))
        {
        GUI(GUI_NORMAL_UPDATE,0);     
  34:	2001      	movs	r0, #1
  36:	2100      	movs	r1, #0
  38:	f7ff fffe 	bl	0 <Application_Handler>
C:\Users\igor.hollaender\Documents\GitHub\STiM32/STiM32.c:544
        ActualBatteryVoltagemV = UTIL_GetBat();        //IH150202 check actual battery status every 100 ticks
  3c:	4b15      	ldr	r3, [pc, #84]	; (94 <Application_Handler+0x94>)
  3e:	681b      	ldr	r3, [r3, #0]
  40:	f8d3 32dc 	ldr.w	r3, [r3, #732]	; 0x2dc
  44:	4798      	blx	r3
  46:	4603      	mov	r3, r0
  48:	b29a      	uxth	r2, r3
  4a:	4b13      	ldr	r3, [pc, #76]	; (98 <Application_Handler+0x98>)
  4c:	801a      	strh	r2, [r3, #0]
C:\Users\igor.hollaender\Documents\GitHub\STiM32/STiM32.c:546
        }   
    GUIUpdate_cnt++;
  4e:	4b13      	ldr	r3, [pc, #76]	; (9c <Application_Handler+0x9c>)
  50:	681b      	ldr	r3, [r3, #0]
  52:	1c5a      	adds	r2, r3, #1
  54:	4b11      	ldr	r3, [pc, #68]	; (9c <Application_Handler+0x9c>)
  56:	601a      	str	r2, [r3, #0]
C:\Users\igor.hollaender\Documents\GitHub\STiM32/STiM32.c:549
  
    // check button state to invoke main menu
    if ( BUTTON_GetState() == BUTTON_PUSHED )
  58:	4b0e      	ldr	r3, [pc, #56]	; (94 <Application_Handler+0x94>)
  5a:	681b      	ldr	r3, [r3, #0]
  5c:	f8d3 3200 	ldr.w	r3, [r3, #512]	; 0x200
  60:	4798      	blx	r3
  62:	4603      	mov	r3, r0
  64:	b2db      	uxtb	r3, r3
  66:	b25b      	sxtb	r3, r3
  68:	2b01      	cmp	r3, #1
  6a:	d10d      	bne.n	88 <Application_Handler+0x88>
C:\Users\igor.hollaender\Documents\GitHub\STiM32/STiM32.c:551
    {
        BUTTON_WaitForRelease();
  6c:	4b09      	ldr	r3, [pc, #36]	; (94 <Application_Handler+0x94>)
  6e:	681b      	ldr	r3, [r3, #0]
  70:	f8d3 320c 	ldr.w	r3, [r3, #524]	; 0x20c
  74:	4798      	blx	r3
C:\Users\igor.hollaender\Documents\GitHub\STiM32/STiM32.c:552
        MENU_Set( ( tMenu* ) &MenuMainSTiM32 );
  76:	4b07      	ldr	r3, [pc, #28]	; (94 <Application_Handler+0x94>)
  78:	681b      	ldr	r3, [r3, #0]
  7a:	f8d3 3280 	ldr.w	r3, [r3, #640]	; 0x280
  7e:	4a08      	ldr	r2, [pc, #32]	; (a0 <Application_Handler+0xa0>)
  80:	4610      	mov	r0, r2
  82:	4798      	blx	r3
C:\Users\igor.hollaender\Documents\GitHub\STiM32/STiM32.c:553
        return MENU_CHANGE;
  84:	2303      	movs	r3, #3
  86:	e000      	b.n	8a <Application_Handler+0x8a>
C:\Users\igor.hollaender\Documents\GitHub\STiM32/STiM32.c:556
    }

    return MENU_CONTINUE;  
  88:	2301      	movs	r3, #1
C:\Users\igor.hollaender\Documents\GitHub\STiM32/STiM32.c:557
    }
  8a:	4618      	mov	r0, r3
  8c:	bd80      	pop	{r7, pc}
  8e:	bf00      	nop
	...
  98:	0000003a 	.word	0x0000003a
  9c:	0000016c 	.word	0x0000016c
  a0:	00000000 	.word	0x00000000

Disassembly of section .text.TimerHandler1:

00000000 <TimerHandler1>:
TimerHandler1():
C:\Users\igor.hollaender\Documents\GitHub\STiM32/STiM32.c:563

/*******************************************************************************
* Function Group: Timer Handlers
*******************************************************************************/
void TimerHandler1(void)
    {    
   0:	b580      	push	{r7, lr}
   2:	af00      	add	r7, sp, #0
C:\Users\igor.hollaender\Documents\GitHub\STiM32/STiM32.c:564
    ActualPendingRequest = PENDING_REQUEST_NONE;
   4:	4b03      	ldr	r3, [pc, #12]	; (14 <TimerHandler1+0x14>)
   6:	2200      	movs	r2, #0
   8:	701a      	strb	r2, [r3, #0]
C:\Users\igor.hollaender\Documents\GitHub\STiM32/STiM32.c:565
    GUI(GUI_INITIALIZE,0);
   a:	2000      	movs	r0, #0
   c:	2100      	movs	r1, #0
   e:	f7ff fffe 	bl	0 <TimerHandler1>
C:\Users\igor.hollaender\Documents\GitHub\STiM32/STiM32.c:566
    }
  12:	bd80      	pop	{r7, pc}
  14:	00000000 	.word	0x00000000

Disassembly of section .text.MenuSetup_Freq:

00000000 <MenuSetup_Freq>:
MenuSetup_Freq():
C:\Users\igor.hollaender\Documents\GitHub\STiM32/STiM32.c:572

/*******************************************************************************
* Function Group: Setup Menu Handlers
*******************************************************************************/
enum MENU_code  MenuSetup_Freq(void)
    {
   0:	b580      	push	{r7, lr}
   2:	af00      	add	r7, sp, #0
C:\Users\igor.hollaender\Documents\GitHub\STiM32/STiM32.c:573
    MENU_Set( ( tMenu* ) &MenuSetFrequency );                 
   4:	4b04      	ldr	r3, [pc, #16]	; (18 <MenuSetup_Freq+0x18>)
   6:	681b      	ldr	r3, [r3, #0]
   8:	f8d3 3280 	ldr.w	r3, [r3, #640]	; 0x280
   c:	4a03      	ldr	r2, [pc, #12]	; (1c <MenuSetup_Freq+0x1c>)
   e:	4610      	mov	r0, r2
  10:	4798      	blx	r3
C:\Users\igor.hollaender\Documents\GitHub\STiM32/STiM32.c:574
    return MENU_CHANGE;
  12:	2303      	movs	r3, #3
C:\Users\igor.hollaender\Documents\GitHub\STiM32/STiM32.c:575
    }
  14:	4618      	mov	r0, r3
  16:	bd80      	pop	{r7, pc}
	...

Disassembly of section .text.MenuSetup_PSeq:

00000000 <MenuSetup_PSeq>:
MenuSetup_PSeq():
C:\Users\igor.hollaender\Documents\GitHub\STiM32/STiM32.c:578

enum MENU_code  MenuSetup_PSeq(void)
    {    
   0:	b580      	push	{r7, lr}
   2:	af00      	add	r7, sp, #0
C:\Users\igor.hollaender\Documents\GitHub\STiM32/STiM32.c:579
    MENU_Set( ( tMenu* ) &MenuSetPulseSequence );             
   4:	4b04      	ldr	r3, [pc, #16]	; (18 <MenuSetup_PSeq+0x18>)
   6:	681b      	ldr	r3, [r3, #0]
   8:	f8d3 3280 	ldr.w	r3, [r3, #640]	; 0x280
   c:	4a03      	ldr	r2, [pc, #12]	; (1c <MenuSetup_PSeq+0x1c>)
   e:	4610      	mov	r0, r2
  10:	4798      	blx	r3
C:\Users\igor.hollaender\Documents\GitHub\STiM32/STiM32.c:580
    return MENU_CHANGE;
  12:	2303      	movs	r3, #3
C:\Users\igor.hollaender\Documents\GitHub\STiM32/STiM32.c:581
    }
  14:	4618      	mov	r0, r3
  16:	bd80      	pop	{r7, pc}
	...

Disassembly of section .text.MenuSetup_PVolt:

00000000 <MenuSetup_PVolt>:
MenuSetup_PVolt():
C:\Users\igor.hollaender\Documents\GitHub\STiM32/STiM32.c:584

enum MENU_code  MenuSetup_PVolt(void)
    {    
   0:	b580      	push	{r7, lr}
   2:	af00      	add	r7, sp, #0
C:\Users\igor.hollaender\Documents\GitHub\STiM32/STiM32.c:585
    MENU_Set( ( tMenu* ) &MenuSetPulsePeakVoltage );             
   4:	4b04      	ldr	r3, [pc, #16]	; (18 <MenuSetup_PVolt+0x18>)
   6:	681b      	ldr	r3, [r3, #0]
   8:	f8d3 3280 	ldr.w	r3, [r3, #640]	; 0x280
   c:	4a03      	ldr	r2, [pc, #12]	; (1c <MenuSetup_PVolt+0x1c>)
   e:	4610      	mov	r0, r2
  10:	4798      	blx	r3
C:\Users\igor.hollaender\Documents\GitHub\STiM32/STiM32.c:586
    return MENU_CHANGE;
  12:	2303      	movs	r3, #3
C:\Users\igor.hollaender\Documents\GitHub\STiM32/STiM32.c:587
    }
  14:	4618      	mov	r0, r3
  16:	bd80      	pop	{r7, pc}
	...

Disassembly of section .text.SetFrequency_1:

00000000 <SetFrequency_1>:
SetFrequency_1():
C:\Users\igor.hollaender\Documents\GitHub\STiM32/STiM32.c:591


enum MENU_code  SetFrequency_1(void)
    {
   0:	b580      	push	{r7, lr}
   2:	af00      	add	r7, sp, #0
C:\Users\igor.hollaender\Documents\GitHub\STiM32/STiM32.c:592
    PulseSeq.frequency = FREQUENCY_1KHZ;     
   4:	4b05      	ldr	r3, [pc, #20]	; (1c <SetFrequency_1+0x1c>)
   6:	2201      	movs	r2, #1
   8:	701a      	strb	r2, [r3, #0]
C:\Users\igor.hollaender\Documents\GitHub\STiM32/STiM32.c:593
    UpdatePulseSequence();
   a:	f7ff fffe 	bl	0 <SetFrequency_1>
C:\Users\igor.hollaender\Documents\GitHub\STiM32/STiM32.c:595
    
    ActualPendingRequest = PENDING_REQUEST_REDRAW;    
   e:	4b04      	ldr	r3, [pc, #16]	; (20 <SetFrequency_1+0x20>)
  10:	2201      	movs	r2, #1
  12:	701a      	strb	r2, [r3, #0]
C:\Users\igor.hollaender\Documents\GitHub\STiM32/STiM32.c:596
    return MENU_CONTINUE_COMMAND;
  14:	2304      	movs	r3, #4
C:\Users\igor.hollaender\Documents\GitHub\STiM32/STiM32.c:597
    }
  16:	4618      	mov	r0, r3
  18:	bd80      	pop	{r7, pc}
  1a:	bf00      	nop
  1c:	00000004 	.word	0x00000004
  20:	00000000 	.word	0x00000000

Disassembly of section .text.SetFrequency_2:

00000000 <SetFrequency_2>:
SetFrequency_2():
C:\Users\igor.hollaender\Documents\GitHub\STiM32/STiM32.c:600

enum MENU_code  SetFrequency_2(void)
    {
   0:	b580      	push	{r7, lr}
   2:	af00      	add	r7, sp, #0
C:\Users\igor.hollaender\Documents\GitHub\STiM32/STiM32.c:601
    PulseSeq.frequency = FREQUENCY_2KHZ;        
   4:	4b05      	ldr	r3, [pc, #20]	; (1c <SetFrequency_2+0x1c>)
   6:	2202      	movs	r2, #2
   8:	701a      	strb	r2, [r3, #0]
C:\Users\igor.hollaender\Documents\GitHub\STiM32/STiM32.c:602
    UpdatePulseSequence();
   a:	f7ff fffe 	bl	0 <SetFrequency_2>
C:\Users\igor.hollaender\Documents\GitHub\STiM32/STiM32.c:604
    
    ActualPendingRequest = PENDING_REQUEST_REDRAW;    
   e:	4b04      	ldr	r3, [pc, #16]	; (20 <SetFrequency_2+0x20>)
  10:	2201      	movs	r2, #1
  12:	701a      	strb	r2, [r3, #0]
C:\Users\igor.hollaender\Documents\GitHub\STiM32/STiM32.c:605
    return MENU_CONTINUE_COMMAND;
  14:	2304      	movs	r3, #4
C:\Users\igor.hollaender\Documents\GitHub\STiM32/STiM32.c:606
    }
  16:	4618      	mov	r0, r3
  18:	bd80      	pop	{r7, pc}
  1a:	bf00      	nop
  1c:	00000004 	.word	0x00000004
  20:	00000000 	.word	0x00000000

Disassembly of section .text.SetFrequency_3:

00000000 <SetFrequency_3>:
SetFrequency_3():
C:\Users\igor.hollaender\Documents\GitHub\STiM32/STiM32.c:609

enum MENU_code  SetFrequency_3(void)
    {
   0:	b580      	push	{r7, lr}
   2:	af00      	add	r7, sp, #0
C:\Users\igor.hollaender\Documents\GitHub\STiM32/STiM32.c:610
    PulseSeq.frequency = FREQUENCY_3KHZ;    
   4:	4b05      	ldr	r3, [pc, #20]	; (1c <SetFrequency_3+0x1c>)
   6:	2203      	movs	r2, #3
   8:	701a      	strb	r2, [r3, #0]
C:\Users\igor.hollaender\Documents\GitHub\STiM32/STiM32.c:611
    UpdatePulseSequence();
   a:	f7ff fffe 	bl	0 <SetFrequency_3>
C:\Users\igor.hollaender\Documents\GitHub\STiM32/STiM32.c:613
    
    ActualPendingRequest = PENDING_REQUEST_REDRAW;    
   e:	4b04      	ldr	r3, [pc, #16]	; (20 <SetFrequency_3+0x20>)
  10:	2201      	movs	r2, #1
  12:	701a      	strb	r2, [r3, #0]
C:\Users\igor.hollaender\Documents\GitHub\STiM32/STiM32.c:614
    return MENU_CONTINUE_COMMAND;
  14:	2304      	movs	r3, #4
C:\Users\igor.hollaender\Documents\GitHub\STiM32/STiM32.c:615
    }
  16:	4618      	mov	r0, r3
  18:	bd80      	pop	{r7, pc}
  1a:	bf00      	nop
  1c:	00000004 	.word	0x00000004
  20:	00000000 	.word	0x00000000

Disassembly of section .text.SetPulseSequence_1:

00000000 <SetPulseSequence_1>:
SetPulseSequence_1():
C:\Users\igor.hollaender\Documents\GitHub\STiM32/STiM32.c:618

enum MENU_code  SetPulseSequence_1(void)
    {       
   0:	b580      	push	{r7, lr}
   2:	af00      	add	r7, sp, #0
C:\Users\igor.hollaender\Documents\GitHub\STiM32/STiM32.c:619
    PulseSeq.pulseSeq = PULSESEQUENCE_1;    
   4:	4b05      	ldr	r3, [pc, #20]	; (1c <SetPulseSequence_1+0x1c>)
   6:	2201      	movs	r2, #1
   8:	705a      	strb	r2, [r3, #1]
C:\Users\igor.hollaender\Documents\GitHub\STiM32/STiM32.c:620
    UpdatePulseSequence();
   a:	f7ff fffe 	bl	0 <SetPulseSequence_1>
C:\Users\igor.hollaender\Documents\GitHub\STiM32/STiM32.c:622
    
    ActualPendingRequest = PENDING_REQUEST_REDRAW;    
   e:	4b04      	ldr	r3, [pc, #16]	; (20 <SetPulseSequence_1+0x20>)
  10:	2201      	movs	r2, #1
  12:	701a      	strb	r2, [r3, #0]
C:\Users\igor.hollaender\Documents\GitHub\STiM32/STiM32.c:623
    return MENU_CONTINUE_COMMAND;
  14:	2304      	movs	r3, #4
C:\Users\igor.hollaender\Documents\GitHub\STiM32/STiM32.c:624
    }
  16:	4618      	mov	r0, r3
  18:	bd80      	pop	{r7, pc}
  1a:	bf00      	nop
  1c:	00000004 	.word	0x00000004
  20:	00000000 	.word	0x00000000

Disassembly of section .text.SetPulseSequence_2:

00000000 <SetPulseSequence_2>:
SetPulseSequence_2():
C:\Users\igor.hollaender\Documents\GitHub\STiM32/STiM32.c:627

enum MENU_code  SetPulseSequence_2(void)
    {
   0:	b580      	push	{r7, lr}
   2:	af00      	add	r7, sp, #0
C:\Users\igor.hollaender\Documents\GitHub\STiM32/STiM32.c:628
    PulseSeq.pulseSeq = PULSESEQUENCE_2;    
   4:	4b05      	ldr	r3, [pc, #20]	; (1c <SetPulseSequence_2+0x1c>)
   6:	2202      	movs	r2, #2
   8:	705a      	strb	r2, [r3, #1]
C:\Users\igor.hollaender\Documents\GitHub\STiM32/STiM32.c:629
    UpdatePulseSequence();
   a:	f7ff fffe 	bl	0 <SetPulseSequence_2>
C:\Users\igor.hollaender\Documents\GitHub\STiM32/STiM32.c:631
    
    ActualPendingRequest = PENDING_REQUEST_REDRAW;    
   e:	4b04      	ldr	r3, [pc, #16]	; (20 <SetPulseSequence_2+0x20>)
  10:	2201      	movs	r2, #1
  12:	701a      	strb	r2, [r3, #0]
C:\Users\igor.hollaender\Documents\GitHub\STiM32/STiM32.c:632
    return MENU_CONTINUE_COMMAND;
  14:	2304      	movs	r3, #4
C:\Users\igor.hollaender\Documents\GitHub\STiM32/STiM32.c:633
    }
  16:	4618      	mov	r0, r3
  18:	bd80      	pop	{r7, pc}
  1a:	bf00      	nop
  1c:	00000004 	.word	0x00000004
  20:	00000000 	.word	0x00000000

Disassembly of section .text.SetPulseSequence_3:

00000000 <SetPulseSequence_3>:
SetPulseSequence_3():
C:\Users\igor.hollaender\Documents\GitHub\STiM32/STiM32.c:636

enum MENU_code  SetPulseSequence_3(void)
    {
   0:	b580      	push	{r7, lr}
   2:	af00      	add	r7, sp, #0
C:\Users\igor.hollaender\Documents\GitHub\STiM32/STiM32.c:637
    PulseSeq.pulseSeq = PULSESEQUENCE_3;    
   4:	4b05      	ldr	r3, [pc, #20]	; (1c <SetPulseSequence_3+0x1c>)
   6:	2203      	movs	r2, #3
   8:	705a      	strb	r2, [r3, #1]
C:\Users\igor.hollaender\Documents\GitHub\STiM32/STiM32.c:638
    UpdatePulseSequence();    
   a:	f7ff fffe 	bl	0 <SetPulseSequence_3>
C:\Users\igor.hollaender\Documents\GitHub\STiM32/STiM32.c:640
    
    ActualPendingRequest = PENDING_REQUEST_REDRAW;    
   e:	4b04      	ldr	r3, [pc, #16]	; (20 <SetPulseSequence_3+0x20>)
  10:	2201      	movs	r2, #1
  12:	701a      	strb	r2, [r3, #0]
C:\Users\igor.hollaender\Documents\GitHub\STiM32/STiM32.c:641
    return MENU_CONTINUE_COMMAND;
  14:	2304      	movs	r3, #4
C:\Users\igor.hollaender\Documents\GitHub\STiM32/STiM32.c:642
    }
  16:	4618      	mov	r0, r3
  18:	bd80      	pop	{r7, pc}
  1a:	bf00      	nop
  1c:	00000004 	.word	0x00000004
  20:	00000000 	.word	0x00000000

Disassembly of section .text.SetPulseSequence_4:

00000000 <SetPulseSequence_4>:
SetPulseSequence_4():
C:\Users\igor.hollaender\Documents\GitHub\STiM32/STiM32.c:645

enum MENU_code  SetPulseSequence_4(void)
    {
   0:	b580      	push	{r7, lr}
   2:	af00      	add	r7, sp, #0
C:\Users\igor.hollaender\Documents\GitHub\STiM32/STiM32.c:646
    PulseSeq.pulseSeq = PULSESEQUENCE_4;    
   4:	4b05      	ldr	r3, [pc, #20]	; (1c <SetPulseSequence_4+0x1c>)
   6:	2204      	movs	r2, #4
   8:	705a      	strb	r2, [r3, #1]
C:\Users\igor.hollaender\Documents\GitHub\STiM32/STiM32.c:647
    UpdatePulseSequence();    
   a:	f7ff fffe 	bl	0 <SetPulseSequence_4>
C:\Users\igor.hollaender\Documents\GitHub\STiM32/STiM32.c:649
    
    ActualPendingRequest = PENDING_REQUEST_REDRAW;    
   e:	4b04      	ldr	r3, [pc, #16]	; (20 <SetPulseSequence_4+0x20>)
  10:	2201      	movs	r2, #1
  12:	701a      	strb	r2, [r3, #0]
C:\Users\igor.hollaender\Documents\GitHub\STiM32/STiM32.c:650
    return MENU_CONTINUE_COMMAND;
  14:	2304      	movs	r3, #4
C:\Users\igor.hollaender\Documents\GitHub\STiM32/STiM32.c:651
    }
  16:	4618      	mov	r0, r3
  18:	bd80      	pop	{r7, pc}
  1a:	bf00      	nop
  1c:	00000004 	.word	0x00000004
  20:	00000000 	.word	0x00000000

Disassembly of section .text.SetPulsePeakVoltage_1:

00000000 <SetPulsePeakVoltage_1>:
SetPulsePeakVoltage_1():
C:\Users\igor.hollaender\Documents\GitHub\STiM32/STiM32.c:654

enum MENU_code  SetPulsePeakVoltage_1(void)
    {
   0:	b580      	push	{r7, lr}
   2:	af00      	add	r7, sp, #0
C:\Users\igor.hollaender\Documents\GitHub\STiM32/STiM32.c:655
    PulseSeq.peakVoltage = PULSEPEAKVOLTAGE_8V;     
   4:	4b05      	ldr	r3, [pc, #20]	; (1c <SetPulsePeakVoltage_1+0x1c>)
   6:	2201      	movs	r2, #1
   8:	709a      	strb	r2, [r3, #2]
C:\Users\igor.hollaender\Documents\GitHub\STiM32/STiM32.c:656
    UpdatePulseSequence();
   a:	f7ff fffe 	bl	0 <SetPulsePeakVoltage_1>
C:\Users\igor.hollaender\Documents\GitHub\STiM32/STiM32.c:658
    
    ActualPendingRequest = PENDING_REQUEST_REDRAW;    
   e:	4b04      	ldr	r3, [pc, #16]	; (20 <SetPulsePeakVoltage_1+0x20>)
  10:	2201      	movs	r2, #1
  12:	701a      	strb	r2, [r3, #0]
C:\Users\igor.hollaender\Documents\GitHub\STiM32/STiM32.c:659
    return MENU_CONTINUE_COMMAND;
  14:	2304      	movs	r3, #4
C:\Users\igor.hollaender\Documents\GitHub\STiM32/STiM32.c:660
    }
  16:	4618      	mov	r0, r3
  18:	bd80      	pop	{r7, pc}
  1a:	bf00      	nop
  1c:	00000004 	.word	0x00000004
  20:	00000000 	.word	0x00000000

Disassembly of section .text.SetPulsePeakVoltage_2:

00000000 <SetPulsePeakVoltage_2>:
SetPulsePeakVoltage_2():
C:\Users\igor.hollaender\Documents\GitHub\STiM32/STiM32.c:663

enum MENU_code  SetPulsePeakVoltage_2(void)
    {
   0:	b580      	push	{r7, lr}
   2:	af00      	add	r7, sp, #0
C:\Users\igor.hollaender\Documents\GitHub\STiM32/STiM32.c:664
    PulseSeq.peakVoltage = PULSEPEAKVOLTAGE_6V;     
   4:	4b05      	ldr	r3, [pc, #20]	; (1c <SetPulsePeakVoltage_2+0x1c>)
   6:	2202      	movs	r2, #2
   8:	709a      	strb	r2, [r3, #2]
C:\Users\igor.hollaender\Documents\GitHub\STiM32/STiM32.c:665
    UpdatePulseSequence();
   a:	f7ff fffe 	bl	0 <SetPulsePeakVoltage_2>
C:\Users\igor.hollaender\Documents\GitHub\STiM32/STiM32.c:667
    
    ActualPendingRequest = PENDING_REQUEST_REDRAW;    
   e:	4b04      	ldr	r3, [pc, #16]	; (20 <SetPulsePeakVoltage_2+0x20>)
  10:	2201      	movs	r2, #1
  12:	701a      	strb	r2, [r3, #0]
C:\Users\igor.hollaender\Documents\GitHub\STiM32/STiM32.c:668
    return MENU_CONTINUE_COMMAND;
  14:	2304      	movs	r3, #4
C:\Users\igor.hollaender\Documents\GitHub\STiM32/STiM32.c:669
    }
  16:	4618      	mov	r0, r3
  18:	bd80      	pop	{r7, pc}
  1a:	bf00      	nop
  1c:	00000004 	.word	0x00000004
  20:	00000000 	.word	0x00000000

Disassembly of section .text.SetPulsePeakVoltage_3:

00000000 <SetPulsePeakVoltage_3>:
SetPulsePeakVoltage_3():
C:\Users\igor.hollaender\Documents\GitHub\STiM32/STiM32.c:672

enum MENU_code  SetPulsePeakVoltage_3(void)
    {
   0:	b580      	push	{r7, lr}
   2:	af00      	add	r7, sp, #0
C:\Users\igor.hollaender\Documents\GitHub\STiM32/STiM32.c:673
    PulseSeq.peakVoltage = PULSEPEAKVOLTAGE_4V;     
   4:	4b05      	ldr	r3, [pc, #20]	; (1c <SetPulsePeakVoltage_3+0x1c>)
   6:	2203      	movs	r2, #3
   8:	709a      	strb	r2, [r3, #2]
C:\Users\igor.hollaender\Documents\GitHub\STiM32/STiM32.c:674
    UpdatePulseSequence();
   a:	f7ff fffe 	bl	0 <SetPulsePeakVoltage_3>
C:\Users\igor.hollaender\Documents\GitHub\STiM32/STiM32.c:676
    
    ActualPendingRequest = PENDING_REQUEST_REDRAW;    
   e:	4b04      	ldr	r3, [pc, #16]	; (20 <SetPulsePeakVoltage_3+0x20>)
  10:	2201      	movs	r2, #1
  12:	701a      	strb	r2, [r3, #0]
C:\Users\igor.hollaender\Documents\GitHub\STiM32/STiM32.c:677
    return MENU_CONTINUE_COMMAND;
  14:	2304      	movs	r3, #4
C:\Users\igor.hollaender\Documents\GitHub\STiM32/STiM32.c:678
    }
  16:	4618      	mov	r0, r3
  18:	bd80      	pop	{r7, pc}
  1a:	bf00      	nop
  1c:	00000004 	.word	0x00000004
  20:	00000000 	.word	0x00000000

Disassembly of section .text.ShutDown:

00000000 <ShutDown>:
ShutDown():
C:\Users\igor.hollaender\Documents\GitHub\STiM32/STiM32.c:682


enum MENU_code ShutDown( void )
{
   0:	b580      	push	{r7, lr}
   2:	af00      	add	r7, sp, #0
C:\Users\igor.hollaender\Documents\GitHub\STiM32/STiM32.c:684
        //IH150126 immediate shutdown
        BackUpParameters();
   4:	f7ff fffe 	bl	0 <ShutDown>
C:\Users\igor.hollaender\Documents\GitHub\STiM32/STiM32.c:685
        SHUTDOWN_Action();
   8:	4b03      	ldr	r3, [pc, #12]	; (18 <ShutDown+0x18>)
   a:	681b      	ldr	r3, [r3, #0]
   c:	f8d3 3340 	ldr.w	r3, [r3, #832]	; 0x340
  10:	4798      	blx	r3
C:\Users\igor.hollaender\Documents\GitHub\STiM32/STiM32.c:686
}
  12:	4618      	mov	r0, r3
  14:	bd80      	pop	{r7, pc}
  16:	bf00      	nop
  18:	00000000 	.word	0x00000000

Disassembly of section .text.Quit:

00000000 <Quit>:
Quit():
C:\Users\igor.hollaender\Documents\GitHub\STiM32/STiM32.c:689

enum MENU_code Quit( void )
{
   0:	b580      	push	{r7, lr}
   2:	af00      	add	r7, sp, #0
C:\Users\igor.hollaender\Documents\GitHub\STiM32/STiM32.c:691
        //IH Quit to OS
        ActualPendingRequest = PENDING_REQUEST_REDRAW;   
   4:	4b2b      	ldr	r3, [pc, #172]	; (b4 <Quit+0xb4>)
   6:	2201      	movs	r2, #1
   8:	701a      	strb	r2, [r3, #0]
C:\Users\igor.hollaender\Documents\GitHub\STiM32/STiM32.c:693

        BUTTON_WaitForRelease();                                     
   a:	4b2b      	ldr	r3, [pc, #172]	; (b8 <Quit+0xb8>)
   c:	681b      	ldr	r3, [r3, #0]
   e:	f8d3 320c 	ldr.w	r3, [r3, #524]	; 0x20c
  12:	4798      	blx	r3
C:\Users\igor.hollaender\Documents\GitHub\STiM32/STiM32.c:694
        BUTTON_SetMode( BUTTON_ONOFF_FORMAIN );
  14:	4b28      	ldr	r3, [pc, #160]	; (b8 <Quit+0xb8>)
  16:	681b      	ldr	r3, [r3, #0]
  18:	f8d3 3204 	ldr.w	r3, [r3, #516]	; 0x204
  1c:	2001      	movs	r0, #1
  1e:	4798      	blx	r3
C:\Users\igor.hollaender\Documents\GitHub\STiM32/STiM32.c:696
        
        LCD_SetBackLightOn();
  20:	4b25      	ldr	r3, [pc, #148]	; (b8 <Quit+0xb8>)
  22:	681b      	ldr	r3, [r3, #0]
  24:	f8d3 3144 	ldr.w	r3, [r3, #324]	; 0x144
  28:	4798      	blx	r3
C:\Users\igor.hollaender\Documents\GitHub\STiM32/STiM32.c:697
        LCD_SetRotateScreen( 1 );
  2a:	4b23      	ldr	r3, [pc, #140]	; (b8 <Quit+0xb8>)
  2c:	681b      	ldr	r3, [r3, #0]
  2e:	f8d3 3130 	ldr.w	r3, [r3, #304]	; 0x130
  32:	2001      	movs	r0, #1
  34:	4798      	blx	r3
C:\Users\igor.hollaender\Documents\GitHub\STiM32/STiM32.c:698
        MENU_ClearCurrentCommand();
  36:	4b20      	ldr	r3, [pc, #128]	; (b8 <Quit+0xb8>)
  38:	681b      	ldr	r3, [r3, #0]
  3a:	f8d3 3290 	ldr.w	r3, [r3, #656]	; 0x290
  3e:	4798      	blx	r3
C:\Users\igor.hollaender\Documents\GitHub\STiM32/STiM32.c:699
        DRAW_SetDefaultColor();
  40:	4b1d      	ldr	r3, [pc, #116]	; (b8 <Quit+0xb8>)
  42:	681b      	ldr	r3, [r3, #0]
  44:	f8d3 3080 	ldr.w	r3, [r3, #128]	; 0x80
  48:	4798      	blx	r3
C:\Users\igor.hollaender\Documents\GitHub\STiM32/STiM32.c:700
        DRAW_SetCharMagniCoeff( 1 );                                                      
  4a:	4b1b      	ldr	r3, [pc, #108]	; (b8 <Quit+0xb8>)
  4c:	681b      	ldr	r3, [r3, #0]
  4e:	f8d3 30a8 	ldr.w	r3, [r3, #168]	; 0xa8
  52:	2001      	movs	r0, #1
  54:	4798      	blx	r3
C:\Users\igor.hollaender\Documents\GitHub\STiM32/STiM32.c:701
        DRAW_Clear();
  56:	4b18      	ldr	r3, [pc, #96]	; (b8 <Quit+0xb8>)
  58:	681b      	ldr	r3, [r3, #0]
  5a:	f8d3 3084 	ldr.w	r3, [r3, #132]	; 0x84
  5e:	4798      	blx	r3
C:\Users\igor.hollaender\Documents\GitHub\STiM32/STiM32.c:702
        POINTER_SetMode( POINTER_ON );      
  60:	4b15      	ldr	r3, [pc, #84]	; (b8 <Quit+0xb8>)
  62:	681b      	ldr	r3, [r3, #0]
  64:	699b      	ldr	r3, [r3, #24]
  66:	2001      	movs	r0, #1
  68:	4798      	blx	r3
C:\Users\igor.hollaender\Documents\GitHub\STiM32/STiM32.c:704
        
        UTIL_SetPll(SPEED_MEDIUM);
  6a:	4b13      	ldr	r3, [pc, #76]	; (b8 <Quit+0xb8>)
  6c:	681b      	ldr	r3, [r3, #0]
  6e:	f8d3 32c0 	ldr.w	r3, [r3, #704]	; 0x2c0
  72:	2003      	movs	r0, #3
  74:	4798      	blx	r3
C:\Users\igor.hollaender\Documents\GitHub\STiM32/STiM32.c:706
                
        UTIL_SetSchHandler(STIMULATOR_HANDLER_ID, 0 );
  76:	4b10      	ldr	r3, [pc, #64]	; (b8 <Quit+0xb8>)
  78:	681b      	ldr	r3, [r3, #0]
  7a:	f8d3 32ec 	ldr.w	r3, [r3, #748]	; 0x2ec
  7e:	200d      	movs	r0, #13
  80:	2100      	movs	r1, #0
  82:	4798      	blx	r3
C:\Users\igor.hollaender\Documents\GitHub\STiM32/STiM32.c:707
        LED_Set( LED_GREEN, LED_OFF );
  84:	4b0c      	ldr	r3, [pc, #48]	; (b8 <Quit+0xb8>)
  86:	681b      	ldr	r3, [r3, #0]
  88:	f8d3 3180 	ldr.w	r3, [r3, #384]	; 0x180
  8c:	2000      	movs	r0, #0
  8e:	2100      	movs	r1, #0
  90:	4798      	blx	r3
C:\Users\igor.hollaender\Documents\GitHub\STiM32/STiM32.c:708
        LED_Set( LED_RED, LED_OFF );
  92:	4b09      	ldr	r3, [pc, #36]	; (b8 <Quit+0xb8>)
  94:	681b      	ldr	r3, [r3, #0]
  96:	f8d3 3180 	ldr.w	r3, [r3, #384]	; 0x180
  9a:	2001      	movs	r0, #1
  9c:	2100      	movs	r1, #0
  9e:	4798      	blx	r3
C:\Users\igor.hollaender\Documents\GitHub\STiM32/STiM32.c:710
        
        BackUpParameters();
  a0:	f7ff fffe 	bl	0 <Quit>
C:\Users\igor.hollaender\Documents\GitHub\STiM32/STiM32.c:711
        return MENU_Quit();
  a4:	4b04      	ldr	r3, [pc, #16]	; (b8 <Quit+0xb8>)
  a6:	681b      	ldr	r3, [r3, #0]
  a8:	f8d3 32a8 	ldr.w	r3, [r3, #680]	; 0x2a8
  ac:	4798      	blx	r3
  ae:	4603      	mov	r3, r0
C:\Users\igor.hollaender\Documents\GitHub\STiM32/STiM32.c:712
}
  b0:	4618      	mov	r0, r3
  b2:	bd80      	pop	{r7, pc}
	...

Disassembly of section .text.RestoreApp:

00000000 <RestoreApp>:
RestoreApp():
C:\Users\igor.hollaender\Documents\GitHub\STiM32/STiM32.c:715

enum MENU_code RestoreApp( void )
{    
   0:	b480      	push	{r7}
   2:	af00      	add	r7, sp, #0
C:\Users\igor.hollaender\Documents\GitHub\STiM32/STiM32.c:716
    ActualPendingRequest = PENDING_REQUEST_REDRAW;    
   4:	4b04      	ldr	r3, [pc, #16]	; (18 <RestoreApp+0x18>)
   6:	2201      	movs	r2, #1
   8:	701a      	strb	r2, [r3, #0]
C:\Users\igor.hollaender\Documents\GitHub\STiM32/STiM32.c:717
    return MENU_RESTORE_COMMAND;    
   a:	2306      	movs	r3, #6
C:\Users\igor.hollaender\Documents\GitHub\STiM32/STiM32.c:718
}
   c:	4618      	mov	r0, r3
   e:	46bd      	mov	sp, r7
  10:	f85d 7b04 	ldr.w	r7, [sp], #4
  14:	4770      	bx	lr
  16:	bf00      	nop
  18:	00000000 	.word	0x00000000

Disassembly of section .text.Cancel:

00000000 <Cancel>:
Cancel():
C:\Users\igor.hollaender\Documents\GitHub\STiM32/STiM32.c:721

enum MENU_code Cancel( void )
{
   0:	b480      	push	{r7}
   2:	af00      	add	r7, sp, #0
C:\Users\igor.hollaender\Documents\GitHub\STiM32/STiM32.c:722
    ActualPendingRequest = PENDING_REQUEST_REDRAW;        
   4:	4b04      	ldr	r3, [pc, #16]	; (18 <Cancel+0x18>)
   6:	2201      	movs	r2, #1
   8:	701a      	strb	r2, [r3, #0]
C:\Users\igor.hollaender\Documents\GitHub\STiM32/STiM32.c:723
    return MENU_CONTINUE_COMMAND;
   a:	2304      	movs	r3, #4
C:\Users\igor.hollaender\Documents\GitHub\STiM32/STiM32.c:724
}
   c:	4618      	mov	r0, r3
   e:	46bd      	mov	sp, r7
  10:	f85d 7b04 	ldr.w	r7, [sp], #4
  14:	4770      	bx	lr
  16:	bf00      	nop
  18:	00000000 	.word	0x00000000

Disassembly of section .text.LongDelay:

00000000 <LongDelay>:
LongDelay():
C:\Users\igor.hollaender\Documents\GitHub\STiM32/STiM32.c:735
*                  exit to main menu after 4 seconds
* Input          : u8 delayInSeconds
* Return         : None
*******************************************************************************/
static void LongDelay(u8 delayInSeconds)
    {
   0:	b580      	push	{r7, lr}
   2:	b084      	sub	sp, #16
   4:	af00      	add	r7, sp, #0
   6:	4603      	mov	r3, r0
   8:	71fb      	strb	r3, [r7, #7]
C:\Users\igor.hollaender\Documents\GitHub\STiM32/STiM32.c:738
    u8 hh, mm, ss, ss2;
    
    RTC_GetTime( &hh, &mm, &ss );
   a:	4b17      	ldr	r3, [pc, #92]	; (68 <LongDelay+0x68>)
   c:	681b      	ldr	r3, [r3, #0]
   e:	f8d3 3304 	ldr.w	r3, [r3, #772]	; 0x304
  12:	f107 000f 	add.w	r0, r7, #15
  16:	f107 010e 	add.w	r1, r7, #14
  1a:	f107 020d 	add.w	r2, r7, #13
  1e:	4798      	blx	r3
C:\Users\igor.hollaender\Documents\GitHub\STiM32/STiM32.c:739
    ss = ss + delayInSeconds;
  20:	7b7a      	ldrb	r2, [r7, #13]
  22:	79fb      	ldrb	r3, [r7, #7]
  24:	4413      	add	r3, r2
  26:	b2db      	uxtb	r3, r3
  28:	737b      	strb	r3, [r7, #13]
C:\Users\igor.hollaender\Documents\GitHub\STiM32/STiM32.c:740
    ss = ss % 60;
  2a:	7b7a      	ldrb	r2, [r7, #13]
  2c:	4b0f      	ldr	r3, [pc, #60]	; (6c <LongDelay+0x6c>)
  2e:	fba3 1302 	umull	r1, r3, r3, r2
  32:	0959      	lsrs	r1, r3, #5
  34:	460b      	mov	r3, r1
  36:	011b      	lsls	r3, r3, #4
  38:	1a5b      	subs	r3, r3, r1
  3a:	009b      	lsls	r3, r3, #2
  3c:	1ad3      	subs	r3, r2, r3
  3e:	b2db      	uxtb	r3, r3
  40:	737b      	strb	r3, [r7, #13]
C:\Users\igor.hollaender\Documents\GitHub\STiM32/STiM32.c:744 (discriminator 1)

    do
        {
        RTC_GetTime( &hh, &mm, &ss2 );
  42:	4b09      	ldr	r3, [pc, #36]	; (68 <LongDelay+0x68>)
  44:	681b      	ldr	r3, [r3, #0]
  46:	f8d3 3304 	ldr.w	r3, [r3, #772]	; 0x304
  4a:	f107 000f 	add.w	r0, r7, #15
  4e:	f107 010e 	add.w	r1, r7, #14
  52:	f107 020c 	add.w	r2, r7, #12
  56:	4798      	blx	r3
C:\Users\igor.hollaender\Documents\GitHub\STiM32/STiM32.c:746 (discriminator 1)
        }
    while ( ss2 != ss );           // do while < delayInSeconds seconds
  58:	7b3a      	ldrb	r2, [r7, #12]
  5a:	7b7b      	ldrb	r3, [r7, #13]
  5c:	429a      	cmp	r2, r3
  5e:	d1f0      	bne.n	42 <LongDelay+0x42>
C:\Users\igor.hollaender\Documents\GitHub\STiM32/STiM32.c:747
    }
  60:	3710      	adds	r7, #16
  62:	46bd      	mov	sp, r7
  64:	bd80      	pop	{r7, pc}
  66:	bf00      	nop
  68:	00000000 	.word	0x00000000
  6c:	88888889 	.word	0x88888889

Disassembly of section .text.UpdatePulseSequence:

00000000 <UpdatePulseSequence>:
UpdatePulseSequence():
C:\Users\igor.hollaender\Documents\GitHub\STiM32/STiM32.c:763
* Return         : u32 loopCounts
*******************************************************************************/
#define MICROSECONDS_TO_LOOP_COUNTS(us)   ((float)(us)*15.0)  //IH150107 corrected (was 7.78 before)

static void UpdatePulseSequence()
    {
   0:	b580      	push	{r7, lr}
   2:	af00      	add	r7, sp, #0
C:\Users\igor.hollaender\Documents\GitHub\STiM32/STiM32.c:764
        switch(PulseSeq.pulseSeq)
   4:	4b86      	ldr	r3, [pc, #536]	; (220 <UpdatePulseSequence+0x220>)
   6:	785b      	ldrb	r3, [r3, #1]
   8:	3b01      	subs	r3, #1
   a:	2b03      	cmp	r3, #3
   c:	d841      	bhi.n	92 <UpdatePulseSequence+0x92>
   e:	a201      	add	r2, pc, #4	; (adr r2, 14 <UpdatePulseSequence+0x14>)
  10:	f852 f023 	ldr.w	pc, [r2, r3, lsl #2]
  14:	00000025 	.word	0x00000025
  18:	0000003f 	.word	0x0000003f
  1c:	0000005b 	.word	0x0000005b
  20:	00000077 	.word	0x00000077
C:\Users\igor.hollaender\Documents\GitHub\STiM32/STiM32.c:767
        {
            case PULSESEQUENCE_1:    
                PulseSeq.delay1_microseconds = 200;        
  24:	4b7e      	ldr	r3, [pc, #504]	; (220 <UpdatePulseSequence+0x220>)
  26:	22c8      	movs	r2, #200	; 0xc8
  28:	82da      	strh	r2, [r3, #22]
C:\Users\igor.hollaender\Documents\GitHub\STiM32/STiM32.c:768
                PulseSeq.delay2_microseconds = 50;        
  2a:	4b7d      	ldr	r3, [pc, #500]	; (220 <UpdatePulseSequence+0x220>)
  2c:	2232      	movs	r2, #50	; 0x32
  2e:	839a      	strh	r2, [r3, #28]
C:\Users\igor.hollaender\Documents\GitHub\STiM32/STiM32.c:769
                PulseSeq.delay3_microseconds = 0;             
  30:	4b7b      	ldr	r3, [pc, #492]	; (220 <UpdatePulseSequence+0x220>)
  32:	2200      	movs	r2, #0
  34:	845a      	strh	r2, [r3, #34]	; 0x22
C:\Users\igor.hollaender\Documents\GitHub\STiM32/STiM32.c:770
                PulseSeq.delay_between_sequences_microseconds = 200;    
  36:	4b7a      	ldr	r3, [pc, #488]	; (220 <UpdatePulseSequence+0x220>)
  38:	22c8      	movs	r2, #200	; 0xc8
  3a:	819a      	strh	r2, [r3, #12]
C:\Users\igor.hollaender\Documents\GitHub\STiM32/STiM32.c:771
                break;
  3c:	e029      	b.n	92 <UpdatePulseSequence+0x92>
C:\Users\igor.hollaender\Documents\GitHub\STiM32/STiM32.c:774
            
            case PULSESEQUENCE_2:    
                PulseSeq.delay1_microseconds = 0;        
  3e:	4b78      	ldr	r3, [pc, #480]	; (220 <UpdatePulseSequence+0x220>)
  40:	2200      	movs	r2, #0
  42:	82da      	strh	r2, [r3, #22]
C:\Users\igor.hollaender\Documents\GitHub\STiM32/STiM32.c:775
                PulseSeq.delay2_microseconds = 50;        
  44:	4b76      	ldr	r3, [pc, #472]	; (220 <UpdatePulseSequence+0x220>)
  46:	2232      	movs	r2, #50	; 0x32
  48:	839a      	strh	r2, [r3, #28]
C:\Users\igor.hollaender\Documents\GitHub\STiM32/STiM32.c:776
                PulseSeq.delay3_microseconds = 50;          
  4a:	4b75      	ldr	r3, [pc, #468]	; (220 <UpdatePulseSequence+0x220>)
  4c:	2232      	movs	r2, #50	; 0x32
  4e:	845a      	strh	r2, [r3, #34]	; 0x22
C:\Users\igor.hollaender\Documents\GitHub\STiM32/STiM32.c:777
                PulseSeq.delay_between_sequences_microseconds = 400;        
  50:	4b73      	ldr	r3, [pc, #460]	; (220 <UpdatePulseSequence+0x220>)
  52:	f44f 72c8 	mov.w	r2, #400	; 0x190
  56:	819a      	strh	r2, [r3, #12]
C:\Users\igor.hollaender\Documents\GitHub\STiM32/STiM32.c:778
                break;
  58:	e01b      	b.n	92 <UpdatePulseSequence+0x92>
C:\Users\igor.hollaender\Documents\GitHub\STiM32/STiM32.c:781
            
            case PULSESEQUENCE_3:    
                PulseSeq.delay1_microseconds = 50;        
  5a:	4b71      	ldr	r3, [pc, #452]	; (220 <UpdatePulseSequence+0x220>)
  5c:	2232      	movs	r2, #50	; 0x32
  5e:	82da      	strh	r2, [r3, #22]
C:\Users\igor.hollaender\Documents\GitHub\STiM32/STiM32.c:782
                PulseSeq.delay2_microseconds = 50;        
  60:	4b6f      	ldr	r3, [pc, #444]	; (220 <UpdatePulseSequence+0x220>)
  62:	2232      	movs	r2, #50	; 0x32
  64:	839a      	strh	r2, [r3, #28]
C:\Users\igor.hollaender\Documents\GitHub\STiM32/STiM32.c:783
                PulseSeq.delay3_microseconds = 50;      
  66:	4b6e      	ldr	r3, [pc, #440]	; (220 <UpdatePulseSequence+0x220>)
  68:	2232      	movs	r2, #50	; 0x32
  6a:	845a      	strh	r2, [r3, #34]	; 0x22
C:\Users\igor.hollaender\Documents\GitHub\STiM32/STiM32.c:784
                PulseSeq.delay_between_sequences_microseconds = 400;        
  6c:	4b6c      	ldr	r3, [pc, #432]	; (220 <UpdatePulseSequence+0x220>)
  6e:	f44f 72c8 	mov.w	r2, #400	; 0x190
  72:	819a      	strh	r2, [r3, #12]
C:\Users\igor.hollaender\Documents\GitHub\STiM32/STiM32.c:785
                break;
  74:	e00d      	b.n	92 <UpdatePulseSequence+0x92>
C:\Users\igor.hollaender\Documents\GitHub\STiM32/STiM32.c:788
            
            case PULSESEQUENCE_4:    
                PulseSeq.delay1_microseconds = 400;        
  76:	4b6a      	ldr	r3, [pc, #424]	; (220 <UpdatePulseSequence+0x220>)
  78:	f44f 72c8 	mov.w	r2, #400	; 0x190
  7c:	82da      	strh	r2, [r3, #22]
C:\Users\igor.hollaender\Documents\GitHub\STiM32/STiM32.c:789
                PulseSeq.delay2_microseconds = 0;        
  7e:	4b68      	ldr	r3, [pc, #416]	; (220 <UpdatePulseSequence+0x220>)
  80:	2200      	movs	r2, #0
  82:	839a      	strh	r2, [r3, #28]
C:\Users\igor.hollaender\Documents\GitHub\STiM32/STiM32.c:790
                PulseSeq.delay3_microseconds = 0;
  84:	4b66      	ldr	r3, [pc, #408]	; (220 <UpdatePulseSequence+0x220>)
  86:	2200      	movs	r2, #0
  88:	845a      	strh	r2, [r3, #34]	; 0x22
C:\Users\igor.hollaender\Documents\GitHub\STiM32/STiM32.c:791
                PulseSeq.delay_between_sequences_microseconds = 100;        
  8a:	4b65      	ldr	r3, [pc, #404]	; (220 <UpdatePulseSequence+0x220>)
  8c:	2264      	movs	r2, #100	; 0x64
  8e:	819a      	strh	r2, [r3, #12]
C:\Users\igor.hollaender\Documents\GitHub\STiM32/STiM32.c:792
                break;
  90:	bf00      	nop
C:\Users\igor.hollaender\Documents\GitHub\STiM32/STiM32.c:795
        }
    
        PulseSeq.delay0_loop_counts = MICROSECONDS_TO_LOOP_COUNTS(PulseSeq.delay0_microseconds);
  92:	4b63      	ldr	r3, [pc, #396]	; (220 <UpdatePulseSequence+0x220>)
  94:	8a1b      	ldrh	r3, [r3, #16]
  96:	ee07 3a10 	vmov	s14, r3
  9a:	eef8 7a47 	vcvt.f32.u32	s15, s14
  9e:	ee17 0a90 	vmov	r0, s15
  a2:	f7ff fffe 	bl	0 <__aeabi_f2d>
  a6:	4602      	mov	r2, r0
  a8:	460b      	mov	r3, r1
  aa:	4610      	mov	r0, r2
  ac:	4619      	mov	r1, r3
  ae:	f04f 0200 	mov.w	r2, #0
  b2:	4b5c      	ldr	r3, [pc, #368]	; (174 <__aeabi_dmul+0x174>)
  b4:	f7ff fffe 	bl	0 <__aeabi_dmul>
  b8:	4602      	mov	r2, r0
  ba:	460b      	mov	r3, r1
  bc:	4610      	mov	r0, r2
  be:	4619      	mov	r1, r3
  c0:	f7ff fffe 	bl	0 <__aeabi_d2uiz>
  c4:	4603      	mov	r3, r0
  c6:	b29a      	uxth	r2, r3
  c8:	4b55      	ldr	r3, [pc, #340]	; (220 <UpdatePulseSequence+0x220>)
  ca:	825a      	strh	r2, [r3, #18]
C:\Users\igor.hollaender\Documents\GitHub\STiM32/STiM32.c:796
        PulseSeq.delay1_loop_counts = MICROSECONDS_TO_LOOP_COUNTS(PulseSeq.delay1_microseconds);
  cc:	4b54      	ldr	r3, [pc, #336]	; (220 <UpdatePulseSequence+0x220>)
  ce:	8adb      	ldrh	r3, [r3, #22]
  d0:	ee07 3a10 	vmov	s14, r3
  d4:	eef8 7a47 	vcvt.f32.u32	s15, s14
  d8:	ee17 0a90 	vmov	r0, s15
  dc:	f7ff fffe 	bl	0 <__aeabi_f2d>
  e0:	4602      	mov	r2, r0
  e2:	460b      	mov	r3, r1
  e4:	4610      	mov	r0, r2
  e6:	4619      	mov	r1, r3
  e8:	f04f 0200 	mov.w	r2, #0
  ec:	4b4d      	ldr	r3, [pc, #308]	; (138 <__aeabi_dmul+0x138>)
  ee:	f7ff fffe 	bl	0 <__aeabi_dmul>
  f2:	4602      	mov	r2, r0
  f4:	460b      	mov	r3, r1
  f6:	4610      	mov	r0, r2
  f8:	4619      	mov	r1, r3
  fa:	f7ff fffe 	bl	0 <__aeabi_d2uiz>
  fe:	4603      	mov	r3, r0
 100:	b29a      	uxth	r2, r3
 102:	4b47      	ldr	r3, [pc, #284]	; (220 <UpdatePulseSequence+0x220>)
 104:	831a      	strh	r2, [r3, #24]
C:\Users\igor.hollaender\Documents\GitHub\STiM32/STiM32.c:797
        PulseSeq.delay2_loop_counts = MICROSECONDS_TO_LOOP_COUNTS(PulseSeq.delay2_microseconds);
 106:	4b46      	ldr	r3, [pc, #280]	; (220 <UpdatePulseSequence+0x220>)
 108:	8b9b      	ldrh	r3, [r3, #28]
 10a:	ee07 3a10 	vmov	s14, r3
 10e:	eef8 7a47 	vcvt.f32.u32	s15, s14
 112:	ee17 0a90 	vmov	r0, s15
 116:	f7ff fffe 	bl	0 <__aeabi_f2d>
 11a:	4602      	mov	r2, r0
 11c:	460b      	mov	r3, r1
 11e:	4610      	mov	r0, r2
 120:	4619      	mov	r1, r3
 122:	f04f 0200 	mov.w	r2, #0
 126:	4b3f      	ldr	r3, [pc, #252]	; (100 <__aeabi_dmul+0x100>)
 128:	f7ff fffe 	bl	0 <__aeabi_dmul>
 12c:	4602      	mov	r2, r0
 12e:	460b      	mov	r3, r1
 130:	4610      	mov	r0, r2
 132:	4619      	mov	r1, r3
 134:	f7ff fffe 	bl	0 <__aeabi_d2uiz>
 138:	4603      	mov	r3, r0
 13a:	b29a      	uxth	r2, r3
 13c:	4b38      	ldr	r3, [pc, #224]	; (220 <UpdatePulseSequence+0x220>)
 13e:	83da      	strh	r2, [r3, #30]
C:\Users\igor.hollaender\Documents\GitHub\STiM32/STiM32.c:798
        PulseSeq.delay3_loop_counts = MICROSECONDS_TO_LOOP_COUNTS(PulseSeq.delay3_microseconds);     
 140:	4b37      	ldr	r3, [pc, #220]	; (220 <UpdatePulseSequence+0x220>)
 142:	8c5b      	ldrh	r3, [r3, #34]	; 0x22
 144:	ee07 3a10 	vmov	s14, r3
 148:	eef8 7a47 	vcvt.f32.u32	s15, s14
 14c:	ee17 0a90 	vmov	r0, s15
 150:	f7ff fffe 	bl	0 <__aeabi_f2d>
 154:	4602      	mov	r2, r0
 156:	460b      	mov	r3, r1
 158:	4610      	mov	r0, r2
 15a:	4619      	mov	r1, r3
 15c:	f04f 0200 	mov.w	r2, #0
 160:	4b30      	ldr	r3, [pc, #192]	; (c4 <__aeabi_dmul+0xc4>)
 162:	f7ff fffe 	bl	0 <__aeabi_dmul>
 166:	4602      	mov	r2, r0
 168:	460b      	mov	r3, r1
 16a:	4610      	mov	r0, r2
 16c:	4619      	mov	r1, r3
 16e:	f7ff fffe 	bl	0 <__aeabi_d2uiz>
 172:	4603      	mov	r3, r0
 174:	b29a      	uxth	r2, r3
 176:	4b2a      	ldr	r3, [pc, #168]	; (220 <UpdatePulseSequence+0x220>)
 178:	849a      	strh	r2, [r3, #36]	; 0x24
C:\Users\igor.hollaender\Documents\GitHub\STiM32/STiM32.c:800
        PulseSeq.delay_between_sequences_loop_counts
                                    = MICROSECONDS_TO_LOOP_COUNTS(PulseSeq.delay_between_sequences_microseconds);     
 17a:	4b29      	ldr	r3, [pc, #164]	; (220 <UpdatePulseSequence+0x220>)
 17c:	899b      	ldrh	r3, [r3, #12]
 17e:	ee07 3a10 	vmov	s14, r3
 182:	eef8 7a47 	vcvt.f32.u32	s15, s14
 186:	ee17 0a90 	vmov	r0, s15
 18a:	f7ff fffe 	bl	0 <__aeabi_f2d>
 18e:	4602      	mov	r2, r0
 190:	460b      	mov	r3, r1
 192:	4610      	mov	r0, r2
 194:	4619      	mov	r1, r3
 196:	f04f 0200 	mov.w	r2, #0
 19a:	4b22      	ldr	r3, [pc, #136]	; (8c <__aeabi_dmul+0x8c>)
 19c:	f7ff fffe 	bl	0 <__aeabi_dmul>
 1a0:	4602      	mov	r2, r0
 1a2:	460b      	mov	r3, r1
 1a4:	4610      	mov	r0, r2
 1a6:	4619      	mov	r1, r3
 1a8:	f7ff fffe 	bl	0 <__aeabi_d2uiz>
 1ac:	4603      	mov	r3, r0
 1ae:	b29a      	uxth	r2, r3
 1b0:	4b1b      	ldr	r3, [pc, #108]	; (220 <UpdatePulseSequence+0x220>)
 1b2:	81da      	strh	r2, [r3, #14]
C:\Users\igor.hollaender\Documents\GitHub\STiM32/STiM32.c:802
    
        switch(PulseSeq.frequency)
 1b4:	4b1a      	ldr	r3, [pc, #104]	; (220 <UpdatePulseSequence+0x220>)
 1b6:	781b      	ldrb	r3, [r3, #0]
 1b8:	2b02      	cmp	r3, #2
 1ba:	d00a      	beq.n	1d2 <UpdatePulseSequence+0x1d2>
 1bc:	2b03      	cmp	r3, #3
 1be:	d00f      	beq.n	1e0 <UpdatePulseSequence+0x1e0>
 1c0:	2b01      	cmp	r3, #1
 1c2:	d114      	bne.n	1ee <UpdatePulseSequence+0x1ee>
C:\Users\igor.hollaender\Documents\GitHub\STiM32/STiM32.c:805
        {
            case FREQUENCY_1KHZ:    
                    PulseSeq.frequency_divider = 3;     
 1c4:	4b16      	ldr	r3, [pc, #88]	; (220 <UpdatePulseSequence+0x220>)
 1c6:	2203      	movs	r2, #3
 1c8:	809a      	strh	r2, [r3, #4]
C:\Users\igor.hollaender\Documents\GitHub\STiM32/STiM32.c:806
                    PulseSeq.sequence_multiplicity = SEQUENCEMULTIPLICITY_SINGLE;
 1ca:	4b15      	ldr	r3, [pc, #84]	; (220 <UpdatePulseSequence+0x220>)
 1cc:	2200      	movs	r2, #0
 1ce:	719a      	strb	r2, [r3, #6]
C:\Users\igor.hollaender\Documents\GitHub\STiM32/STiM32.c:807
                    break; 
 1d0:	e00d      	b.n	1ee <UpdatePulseSequence+0x1ee>
C:\Users\igor.hollaender\Documents\GitHub\STiM32/STiM32.c:809
            case FREQUENCY_2KHZ:    
                    PulseSeq.frequency_divider = 3;     
 1d2:	4b13      	ldr	r3, [pc, #76]	; (220 <UpdatePulseSequence+0x220>)
 1d4:	2203      	movs	r2, #3
 1d6:	809a      	strh	r2, [r3, #4]
C:\Users\igor.hollaender\Documents\GitHub\STiM32/STiM32.c:810
                    PulseSeq.sequence_multiplicity = SEQUENCEMULTIPLICITY_DOUBLE;
 1d8:	4b11      	ldr	r3, [pc, #68]	; (220 <UpdatePulseSequence+0x220>)
 1da:	2201      	movs	r2, #1
 1dc:	719a      	strb	r2, [r3, #6]
C:\Users\igor.hollaender\Documents\GitHub\STiM32/STiM32.c:811
                    break;
 1de:	e006      	b.n	1ee <UpdatePulseSequence+0x1ee>
C:\Users\igor.hollaender\Documents\GitHub\STiM32/STiM32.c:813
            case FREQUENCY_3KHZ:    
                    PulseSeq.frequency_divider = 1;     
 1e0:	4b0f      	ldr	r3, [pc, #60]	; (220 <UpdatePulseSequence+0x220>)
 1e2:	2201      	movs	r2, #1
 1e4:	809a      	strh	r2, [r3, #4]
C:\Users\igor.hollaender\Documents\GitHub\STiM32/STiM32.c:814
                    PulseSeq.sequence_multiplicity = SEQUENCEMULTIPLICITY_SINGLE;
 1e6:	4b0e      	ldr	r3, [pc, #56]	; (220 <UpdatePulseSequence+0x220>)
 1e8:	2200      	movs	r2, #0
 1ea:	719a      	strb	r2, [r3, #6]
C:\Users\igor.hollaender\Documents\GitHub\STiM32/STiM32.c:815
                    break;
 1ec:	bf00      	nop
C:\Users\igor.hollaender\Documents\GitHub\STiM32/STiM32.c:818
        }
    
        switch(PulseSeq.peakVoltage)
 1ee:	4b0c      	ldr	r3, [pc, #48]	; (220 <UpdatePulseSequence+0x220>)
 1f0:	789b      	ldrb	r3, [r3, #2]
 1f2:	2b02      	cmp	r3, #2
 1f4:	d008      	beq.n	208 <UpdatePulseSequence+0x208>
 1f6:	2b03      	cmp	r3, #3
 1f8:	d00b      	beq.n	212 <UpdatePulseSequence+0x212>
 1fa:	2b01      	cmp	r3, #1
 1fc:	d10e      	bne.n	21c <UpdatePulseSequence+0x21c>
C:\Users\igor.hollaender\Documents\GitHub\STiM32/STiM32.c:821
        {
            case PULSEPEAKVOLTAGE_8V:    
                    PulseSeq.voltage_multiplication_factor =  8.0/8.0;
 1fe:	4b08      	ldr	r3, [pc, #32]	; (220 <UpdatePulseSequence+0x220>)
 200:	f04f 527e 	mov.w	r2, #1065353216	; 0x3f800000
 204:	609a      	str	r2, [r3, #8]
C:\Users\igor.hollaender\Documents\GitHub\STiM32/STiM32.c:822
                    break;
 206:	e009      	b.n	21c <UpdatePulseSequence+0x21c>
C:\Users\igor.hollaender\Documents\GitHub\STiM32/STiM32.c:824
            case PULSEPEAKVOLTAGE_6V:    
                    PulseSeq.voltage_multiplication_factor =  6.0/8.0;
 208:	4b05      	ldr	r3, [pc, #20]	; (220 <UpdatePulseSequence+0x220>)
 20a:	f04f 527d 	mov.w	r2, #1061158912	; 0x3f400000
 20e:	609a      	str	r2, [r3, #8]
C:\Users\igor.hollaender\Documents\GitHub\STiM32/STiM32.c:825
                    break;
 210:	e004      	b.n	21c <UpdatePulseSequence+0x21c>
C:\Users\igor.hollaender\Documents\GitHub\STiM32/STiM32.c:827
            case PULSEPEAKVOLTAGE_4V:    
                    PulseSeq.voltage_multiplication_factor =  4.0/8.0;
 212:	4b03      	ldr	r3, [pc, #12]	; (220 <UpdatePulseSequence+0x220>)
 214:	f04f 527c 	mov.w	r2, #1056964608	; 0x3f000000
 218:	609a      	str	r2, [r3, #8]
C:\Users\igor.hollaender\Documents\GitHub\STiM32/STiM32.c:828
                    break;
 21a:	bf00      	nop
C:\Users\igor.hollaender\Documents\GitHub\STiM32/STiM32.c:833
        }    
    
       // PulseSeq.voltage_multiplication_factor *= ((float)NOMINAL_BATTERY_VOLTAGE_MV)/((float)ActualBatteryVoltagemV);  //IH150203 TODO: 
                    
    }
 21c:	bd80      	pop	{r7, pc}
 21e:	bf00      	nop
 220:	00000004 	.word	0x00000004
 224:	402e0000 	.word	0x402e0000

Disassembly of section .text.GeneratePulseSequenceAndReadCAE:

00000000 <GeneratePulseSequenceAndReadCAE>:
GeneratePulseSequenceAndReadCAE():
C:\Users\igor.hollaender\Documents\GitHub\STiM32/STiM32.c:851

* Input          : None
* Return         : None
*******************************************************************************/
static void GeneratePulseSequenceAndReadCAE()
    {u32 i;    
   0:	b580      	push	{r7, lr}
   2:	b084      	sub	sp, #16
   4:	af00      	add	r7, sp, #0
C:\Users\igor.hollaender\Documents\GitHub\STiM32/STiM32.c:854
     u32 ad_value_0_to_4095;
    
     u32 ad_value_offset  =  1500;          // ADC values under this are presented as 0
   6:	f240 53dc 	movw	r3, #1500	; 0x5dc
   a:	60bb      	str	r3, [r7, #8]
C:\Users\igor.hollaender\Documents\GitHub\STiM32/STiM32.c:855
     u32 ad_value_reciproq_scale   =  3;    // values are DIVIDED by this factor
   c:	2303      	movs	r3, #3
   e:	607b      	str	r3, [r7, #4]
C:\Users\igor.hollaender\Documents\GitHub\STiM32/STiM32.c:857
    
    SetOutputVoltage(ZERO_VOLTAGE,PulseSeq.voltage_multiplication_factor);
  10:	4b3b      	ldr	r3, [pc, #236]	; (100 <GeneratePulseSequenceAndReadCAE+0x100>)
  12:	689b      	ldr	r3, [r3, #8]
  14:	2002      	movs	r0, #2
  16:	4619      	mov	r1, r3
  18:	f7ff fffe 	bl	0 <GeneratePulseSequenceAndReadCAE>
C:\Users\igor.hollaender\Documents\GitHub\STiM32/STiM32.c:858
    WHILE_DELAY_LOOP(PulseSeq.delay0_loop_counts)
  1c:	4b38      	ldr	r3, [pc, #224]	; (100 <GeneratePulseSequenceAndReadCAE+0x100>)
  1e:	8a5b      	ldrh	r3, [r3, #18]
  20:	60fb      	str	r3, [r7, #12]
  22:	bf00      	nop
C:\Users\igor.hollaender\Documents\GitHub\STiM32/STiM32.c:858 (discriminator 1)
  24:	68fb      	ldr	r3, [r7, #12]
  26:	1e5a      	subs	r2, r3, #1
  28:	60fa      	str	r2, [r7, #12]
  2a:	2b00      	cmp	r3, #0
  2c:	d1fa      	bne.n	24 <GeneratePulseSequenceAndReadCAE+0x24>
C:\Users\igor.hollaender\Documents\GitHub\STiM32/STiM32.c:860

    if(PulseSeq.delay1_loop_counts>0)
  2e:	4b34      	ldr	r3, [pc, #208]	; (100 <GeneratePulseSequenceAndReadCAE+0x100>)
  30:	8b1b      	ldrh	r3, [r3, #24]
  32:	2b00      	cmp	r3, #0
  34:	d039      	beq.n	aa <GeneratePulseSequenceAndReadCAE+0xaa>
C:\Users\igor.hollaender\Documents\GitHub\STiM32/STiM32.c:862
    {    
        SetOutputVoltage(POSITIVE_VOLTAGE_MAX,PulseSeq.voltage_multiplication_factor);
  36:	4b32      	ldr	r3, [pc, #200]	; (100 <GeneratePulseSequenceAndReadCAE+0x100>)
  38:	689b      	ldr	r3, [r3, #8]
  3a:	2000      	movs	r0, #0
  3c:	4619      	mov	r1, r3
  3e:	f7ff fffe 	bl	0 <GeneratePulseSequenceAndReadCAE>
C:\Users\igor.hollaender\Documents\GitHub\STiM32/STiM32.c:864
    
        CX_Read(CX_ADC1, &ad_value_0_to_4095, 0);    
  42:	4b30      	ldr	r3, [pc, #192]	; (104 <GeneratePulseSequenceAndReadCAE+0x104>)
  44:	681b      	ldr	r3, [r3, #0]
  46:	f8d3 3228 	ldr.w	r3, [r3, #552]	; 0x228
  4a:	463a      	mov	r2, r7
  4c:	2023      	movs	r0, #35	; 0x23
  4e:	4611      	mov	r1, r2
  50:	2200      	movs	r2, #0
  52:	4798      	blx	r3
C:\Users\igor.hollaender\Documents\GitHub\STiM32/STiM32.c:865
        if(ad_value_0_to_4095 < ad_value_offset)
  54:	683a      	ldr	r2, [r7, #0]
  56:	68bb      	ldr	r3, [r7, #8]
  58:	429a      	cmp	r2, r3
  5a:	d206      	bcs.n	6a <GeneratePulseSequenceAndReadCAE+0x6a>
C:\Users\igor.hollaender\Documents\GitHub\STiM32/STiM32.c:867
        {
            Readout.CAE1 = 0;
  5c:	4b2a      	ldr	r3, [pc, #168]	; (108 <GeneratePulseSequenceAndReadCAE+0x108>)
  5e:	2200      	movs	r2, #0
  60:	601a      	str	r2, [r3, #0]
C:\Users\igor.hollaender\Documents\GitHub\STiM32/STiM32.c:868
            Readout.isOverloaded = 0;
  62:	4b29      	ldr	r3, [pc, #164]	; (108 <GeneratePulseSequenceAndReadCAE+0x108>)
  64:	2200      	movs	r2, #0
  66:	711a      	strb	r2, [r3, #4]
  68:	e016      	b.n	98 <GeneratePulseSequenceAndReadCAE+0x98>
C:\Users\igor.hollaender\Documents\GitHub\STiM32/STiM32.c:870
        }
        else if (ad_value_0_to_4095 == 4095)
  6a:	683a      	ldr	r2, [r7, #0]
  6c:	f640 73ff 	movw	r3, #4095	; 0xfff
  70:	429a      	cmp	r2, r3
  72:	d106      	bne.n	82 <GeneratePulseSequenceAndReadCAE+0x82>
C:\Users\igor.hollaender\Documents\GitHub\STiM32/STiM32.c:872
        {
            Readout.CAE1 = 0;
  74:	4b24      	ldr	r3, [pc, #144]	; (108 <GeneratePulseSequenceAndReadCAE+0x108>)
  76:	2200      	movs	r2, #0
  78:	601a      	str	r2, [r3, #0]
C:\Users\igor.hollaender\Documents\GitHub\STiM32/STiM32.c:873
            Readout.isOverloaded = 1;
  7a:	4b23      	ldr	r3, [pc, #140]	; (108 <GeneratePulseSequenceAndReadCAE+0x108>)
  7c:	2201      	movs	r2, #1
  7e:	711a      	strb	r2, [r3, #4]
  80:	e00a      	b.n	98 <GeneratePulseSequenceAndReadCAE+0x98>
C:\Users\igor.hollaender\Documents\GitHub\STiM32/STiM32.c:877
        }
        else    
        {        
            Readout.CAE1 = (ad_value_0_to_4095 - ad_value_offset)/ad_value_reciproq_scale;    
  82:	683a      	ldr	r2, [r7, #0]
  84:	68bb      	ldr	r3, [r7, #8]
  86:	1ad2      	subs	r2, r2, r3
  88:	687b      	ldr	r3, [r7, #4]
  8a:	fbb2 f2f3 	udiv	r2, r2, r3
  8e:	4b1e      	ldr	r3, [pc, #120]	; (108 <GeneratePulseSequenceAndReadCAE+0x108>)
  90:	601a      	str	r2, [r3, #0]
C:\Users\igor.hollaender\Documents\GitHub\STiM32/STiM32.c:878
            Readout.isOverloaded = 0;
  92:	4b1d      	ldr	r3, [pc, #116]	; (108 <GeneratePulseSequenceAndReadCAE+0x108>)
  94:	2200      	movs	r2, #0
  96:	711a      	strb	r2, [r3, #4]
C:\Users\igor.hollaender\Documents\GitHub\STiM32/STiM32.c:881
        }
    
        WHILE_DELAY_LOOP(PulseSeq.delay1_loop_counts)        
  98:	4b19      	ldr	r3, [pc, #100]	; (100 <GeneratePulseSequenceAndReadCAE+0x100>)
  9a:	8b1b      	ldrh	r3, [r3, #24]
  9c:	60fb      	str	r3, [r7, #12]
  9e:	bf00      	nop
C:\Users\igor.hollaender\Documents\GitHub\STiM32/STiM32.c:881 (discriminator 1)
  a0:	68fb      	ldr	r3, [r7, #12]
  a2:	1e5a      	subs	r2, r3, #1
  a4:	60fa      	str	r2, [r7, #12]
  a6:	2b00      	cmp	r3, #0
  a8:	d1fa      	bne.n	a0 <GeneratePulseSequenceAndReadCAE+0xa0>
C:\Users\igor.hollaender\Documents\GitHub\STiM32/STiM32.c:884
    }
        
    SetOutputVoltage(ZERO_VOLTAGE,PulseSeq.voltage_multiplication_factor);
  aa:	4b15      	ldr	r3, [pc, #84]	; (100 <GeneratePulseSequenceAndReadCAE+0x100>)
  ac:	689b      	ldr	r3, [r3, #8]
  ae:	2002      	movs	r0, #2
  b0:	4619      	mov	r1, r3
  b2:	f7ff fffe 	bl	0 <GeneratePulseSequenceAndReadCAE>
C:\Users\igor.hollaender\Documents\GitHub\STiM32/STiM32.c:886
    
    WHILE_DELAY_LOOP(PulseSeq.delay2_loop_counts)    
  b6:	4b12      	ldr	r3, [pc, #72]	; (100 <GeneratePulseSequenceAndReadCAE+0x100>)
  b8:	8bdb      	ldrh	r3, [r3, #30]
  ba:	60fb      	str	r3, [r7, #12]
  bc:	bf00      	nop
C:\Users\igor.hollaender\Documents\GitHub\STiM32/STiM32.c:886 (discriminator 1)
  be:	68fb      	ldr	r3, [r7, #12]
  c0:	1e5a      	subs	r2, r3, #1
  c2:	60fa      	str	r2, [r7, #12]
  c4:	2b00      	cmp	r3, #0
  c6:	d1fa      	bne.n	be <GeneratePulseSequenceAndReadCAE+0xbe>
C:\Users\igor.hollaender\Documents\GitHub\STiM32/STiM32.c:888
   
    if(PulseSeq.delay3_loop_counts>0)
  c8:	4b0d      	ldr	r3, [pc, #52]	; (100 <GeneratePulseSequenceAndReadCAE+0x100>)
  ca:	8c9b      	ldrh	r3, [r3, #36]	; 0x24
  cc:	2b00      	cmp	r3, #0
  ce:	d00e      	beq.n	ee <GeneratePulseSequenceAndReadCAE+0xee>
C:\Users\igor.hollaender\Documents\GitHub\STiM32/STiM32.c:890
    {    
        SetOutputVoltage(NEGATIVE_VOLTAGE_MAX,PulseSeq.voltage_multiplication_factor);
  d0:	4b0b      	ldr	r3, [pc, #44]	; (100 <GeneratePulseSequenceAndReadCAE+0x100>)
  d2:	689b      	ldr	r3, [r3, #8]
  d4:	2004      	movs	r0, #4
  d6:	4619      	mov	r1, r3
  d8:	f7ff fffe 	bl	0 <GeneratePulseSequenceAndReadCAE>
C:\Users\igor.hollaender\Documents\GitHub\STiM32/STiM32.c:891
        WHILE_DELAY_LOOP(PulseSeq.delay3_loop_counts)    
  dc:	4b08      	ldr	r3, [pc, #32]	; (100 <GeneratePulseSequenceAndReadCAE+0x100>)
  de:	8c9b      	ldrh	r3, [r3, #36]	; 0x24
  e0:	60fb      	str	r3, [r7, #12]
  e2:	bf00      	nop
C:\Users\igor.hollaender\Documents\GitHub\STiM32/STiM32.c:891 (discriminator 1)
  e4:	68fb      	ldr	r3, [r7, #12]
  e6:	1e5a      	subs	r2, r3, #1
  e8:	60fa      	str	r2, [r7, #12]
  ea:	2b00      	cmp	r3, #0
  ec:	d1fa      	bne.n	e4 <GeneratePulseSequenceAndReadCAE+0xe4>
C:\Users\igor.hollaender\Documents\GitHub\STiM32/STiM32.c:894
    }
    
    SetOutputVoltage(ZERO_VOLTAGE,PulseSeq.voltage_multiplication_factor);                  
  ee:	4b04      	ldr	r3, [pc, #16]	; (100 <GeneratePulseSequenceAndReadCAE+0x100>)
  f0:	689b      	ldr	r3, [r3, #8]
  f2:	2002      	movs	r0, #2
  f4:	4619      	mov	r1, r3
  f6:	f7ff fffe 	bl	0 <GeneratePulseSequenceAndReadCAE>
C:\Users\igor.hollaender\Documents\GitHub\STiM32/STiM32.c:895
    }   
  fa:	3710      	adds	r7, #16
  fc:	46bd      	mov	sp, r7
  fe:	bd80      	pop	{r7, pc}
 100:	00000004 	.word	0x00000004
 104:	00000000 	.word	0x00000000
 108:	0000002c 	.word	0x0000002c

Disassembly of section .text.SetOutputVoltage:

00000000 <SetOutputVoltage>:
SetOutputVoltage():
C:\Users\igor.hollaender\Documents\GitHub\STiM32/STiM32.c:910
* Input          : OutputVoltage_code oVcode
*                  multiplication_factor : float from 0 to 1
* Return         : None
*******************************************************************************/
static void SetOutputVoltage(OutputVoltage_code oVcode,float multiplication_factor)
    {
   0:	b580      	push	{r7, lr}
   2:	b084      	sub	sp, #16
   4:	af00      	add	r7, sp, #0
   6:	4603      	mov	r3, r0
   8:	6039      	str	r1, [r7, #0]
   a:	71fb      	strb	r3, [r7, #7]
C:\Users\igor.hollaender\Documents\GitHub\STiM32/STiM32.c:914
  
        static u8 controlByteForMAX5439=0;

        volatile u32 nb_byteSent = 1;
   c:	2301      	movs	r3, #1
   e:	60fb      	str	r3, [r7, #12]
C:\Users\igor.hollaender\Documents\GitHub\STiM32/STiM32.c:916
        
        switch(oVcode)
  10:	79fb      	ldrb	r3, [r7, #7]
  12:	2b04      	cmp	r3, #4
  14:	d858      	bhi.n	c8 <SetOutputVoltage+0xc8>
  16:	a201      	add	r2, pc, #4	; (adr r2, 1c <SetOutputVoltage+0x1c>)
  18:	f852 f023 	ldr.w	pc, [r2, r3, lsl #2]
  1c:	00000031 	.word	0x00000031
  20:	00000055 	.word	0x00000055
  24:	00000079 	.word	0x00000079
  28:	00000081 	.word	0x00000081
  2c:	000000a5 	.word	0x000000a5
C:\Users\igor.hollaender\Documents\GitHub\STiM32/STiM32.c:918
        {
            case POSITIVE_VOLTAGE_MAX:      controlByteForMAX5439= 63 + 64*multiplication_factor;  break;
  30:	ed97 7a00 	vldr	s14, [r7]
  34:	eddf 7a32 	vldr	s15, [pc, #200]	; 100 <SetOutputVoltage+0x100>
  38:	ee27 7a27 	vmul.f32	s14, s14, s15
  3c:	eddf 7a31 	vldr	s15, [pc, #196]	; 104 <SetOutputVoltage+0x104>
  40:	ee77 7a27 	vadd.f32	s15, s14, s15
  44:	eefc 7ae7 	vcvt.u32.f32	s15, s15
  48:	ee17 3a90 	vmov	r3, s15
  4c:	b2da      	uxtb	r2, r3
  4e:	4b2e      	ldr	r3, [pc, #184]	; (108 <SetOutputVoltage+0x108>)
  50:	701a      	strb	r2, [r3, #0]
  52:	e039      	b.n	c8 <SetOutputVoltage+0xc8>
C:\Users\igor.hollaender\Documents\GitHub\STiM32/STiM32.c:919
            case POSITIVE_VOLTAGE_HALF:     controlByteForMAX5439= 63 + 32*multiplication_factor;  break; 
  54:	ed97 7a00 	vldr	s14, [r7]
  58:	eddf 7a2c 	vldr	s15, [pc, #176]	; 10c <SetOutputVoltage+0x10c>
  5c:	ee27 7a27 	vmul.f32	s14, s14, s15
  60:	eddf 7a28 	vldr	s15, [pc, #160]	; 104 <SetOutputVoltage+0x104>
  64:	ee77 7a27 	vadd.f32	s15, s14, s15
  68:	eefc 7ae7 	vcvt.u32.f32	s15, s15
  6c:	ee17 3a90 	vmov	r3, s15
  70:	b2da      	uxtb	r2, r3
  72:	4b25      	ldr	r3, [pc, #148]	; (108 <SetOutputVoltage+0x108>)
  74:	701a      	strb	r2, [r3, #0]
  76:	e027      	b.n	c8 <SetOutputVoltage+0xc8>
C:\Users\igor.hollaender\Documents\GitHub\STiM32/STiM32.c:920
            case ZERO_VOLTAGE:              controlByteForMAX5439= 63 ; break;
  78:	4b23      	ldr	r3, [pc, #140]	; (108 <SetOutputVoltage+0x108>)
  7a:	223f      	movs	r2, #63	; 0x3f
  7c:	701a      	strb	r2, [r3, #0]
  7e:	e023      	b.n	c8 <SetOutputVoltage+0xc8>
C:\Users\igor.hollaender\Documents\GitHub\STiM32/STiM32.c:921
            case NEGATIVE_VOLTAGE_HALF:     controlByteForMAX5439= 63 - 32*multiplication_factor;  break;  
  80:	ed97 7a00 	vldr	s14, [r7]
  84:	eddf 7a21 	vldr	s15, [pc, #132]	; 10c <SetOutputVoltage+0x10c>
  88:	ee67 7a27 	vmul.f32	s15, s14, s15
  8c:	ed9f 7a1d 	vldr	s14, [pc, #116]	; 104 <SetOutputVoltage+0x104>
  90:	ee77 7a67 	vsub.f32	s15, s14, s15
  94:	eefc 7ae7 	vcvt.u32.f32	s15, s15
  98:	ee17 3a90 	vmov	r3, s15
  9c:	b2da      	uxtb	r2, r3
  9e:	4b1a      	ldr	r3, [pc, #104]	; (108 <SetOutputVoltage+0x108>)
  a0:	701a      	strb	r2, [r3, #0]
  a2:	e011      	b.n	c8 <SetOutputVoltage+0xc8>
C:\Users\igor.hollaender\Documents\GitHub\STiM32/STiM32.c:922
            case NEGATIVE_VOLTAGE_MAX:      controlByteForMAX5439= 63 - 63*multiplication_factor;  break;  
  a4:	ed97 7a00 	vldr	s14, [r7]
  a8:	eddf 7a16 	vldr	s15, [pc, #88]	; 104 <SetOutputVoltage+0x104>
  ac:	ee67 7a27 	vmul.f32	s15, s14, s15
  b0:	ed9f 7a14 	vldr	s14, [pc, #80]	; 104 <SetOutputVoltage+0x104>
  b4:	ee77 7a67 	vsub.f32	s15, s14, s15
  b8:	eefc 7ae7 	vcvt.u32.f32	s15, s15
  bc:	ee17 3a90 	vmov	r3, s15
  c0:	b2da      	uxtb	r2, r3
  c2:	4b11      	ldr	r3, [pc, #68]	; (108 <SetOutputVoltage+0x108>)
  c4:	701a      	strb	r2, [r3, #0]
  c6:	bf00      	nop
C:\Users\igor.hollaender\Documents\GitHub\STiM32/STiM32.c:926
                                                                        //IH150203 not absolutely exact, but OK
        }
    
        CX_Write(CX_GPIO_PIN8,CX_GPIO_LOW,0);     
  c8:	4b11      	ldr	r3, [pc, #68]	; (110 <SetOutputVoltage+0x110>)
  ca:	681b      	ldr	r3, [r3, #0]
  cc:	f8d3 3224 	ldr.w	r3, [r3, #548]	; 0x224
  d0:	2008      	movs	r0, #8
  d2:	2100      	movs	r1, #0
  d4:	2200      	movs	r2, #0
  d6:	4798      	blx	r3
C:\Users\igor.hollaender\Documents\GitHub\STiM32/STiM32.c:928

        CX_Write(CX_SPI,&controlByteForMAX5439,&nb_byteSent);
  d8:	4b0d      	ldr	r3, [pc, #52]	; (110 <SetOutputVoltage+0x110>)
  da:	681b      	ldr	r3, [r3, #0]
  dc:	f8d3 3224 	ldr.w	r3, [r3, #548]	; 0x224
  e0:	4909      	ldr	r1, [pc, #36]	; (108 <SetOutputVoltage+0x108>)
  e2:	f107 020c 	add.w	r2, r7, #12
  e6:	2021      	movs	r0, #33	; 0x21
  e8:	4798      	blx	r3
C:\Users\igor.hollaender\Documents\GitHub\STiM32/STiM32.c:929
        CX_Write(CX_GPIO_PIN8,CX_GPIO_HIGH,0);  //IH141230 this rising edge of the NSS signal actually sets the wiper 
  ea:	4b09      	ldr	r3, [pc, #36]	; (110 <SetOutputVoltage+0x110>)
  ec:	681b      	ldr	r3, [r3, #0]
  ee:	f8d3 3224 	ldr.w	r3, [r3, #548]	; 0x224
  f2:	2008      	movs	r0, #8
  f4:	2101      	movs	r1, #1
  f6:	2200      	movs	r2, #0
  f8:	4798      	blx	r3
C:\Users\igor.hollaender\Documents\GitHub\STiM32/STiM32.c:934
                                                // (see MAX5439 datasheet)
    
        //IH140912 we do not wait for end of the transmission here, neither do we check the success
    
    }
  fa:	3710      	adds	r7, #16
  fc:	46bd      	mov	sp, r7
  fe:	bd80      	pop	{r7, pc}
 100:	42800000 	.word	0x42800000
 104:	427c0000 	.word	0x427c0000
 108:	00000170 	.word	0x00000170
 10c:	42000000 	.word	0x42000000
 110:	00000000 	.word	0x00000000

Disassembly of section .text.GUI:

00000000 <GUI>:
GUI():
C:\Users\igor.hollaender\Documents\GitHub\STiM32/STiM32.c:944
* Input          :  GUIaction
                    readout1
* Return         : None
*******************************************************************************/
static void GUI(GUIaction_code GUIaction, u16 readout1)
    {
   0:	b590      	push	{r4, r7, lr}
   2:	b08f      	sub	sp, #60	; 0x3c
   4:	af02      	add	r7, sp, #8
   6:	4602      	mov	r2, r0
   8:	460b      	mov	r3, r1
   a:	71fa      	strb	r2, [r7, #7]
   c:	80bb      	strh	r3, [r7, #4]
C:\Users\igor.hollaender\Documents\GitHub\STiM32/STiM32.c:960
       
#define STIM_SINGLE_BAR_WIDTH     8
    
    static StimState_code lastStimState = STIMSTATE_RUN;
    static u16 barPosX = 0;
    u16 barWidth = STIM_SINGLE_BAR_WIDTH;
   e:	2308      	movs	r3, #8
  10:	85fb      	strh	r3, [r7, #46]	; 0x2e
C:\Users\igor.hollaender\Documents\GitHub\STiM32/STiM32.c:963
    
        
    float readoutYScalingFactor = 0.15;  
  12:	4bab      	ldr	r3, [pc, #684]	; (2c0 <GUI+0x2c0>)
  14:	62bb      	str	r3, [r7, #40]	; 0x28
C:\Users\igor.hollaender\Documents\GitHub\STiM32/STiM32.c:965
    
        switch(GUIaction)
  16:	79fb      	ldrb	r3, [r7, #7]
  18:	2b03      	cmp	r3, #3
  1a:	f200 81b6 	bhi.w	38a <GUI+0x38a>
  1e:	a201      	add	r2, pc, #4	; (adr r2, 24 <GUI+0x24>)
  20:	f852 f023 	ldr.w	pc, [r2, r3, lsl #2]
  24:	00000035 	.word	0x00000035
  28:	000000b3 	.word	0x000000b3
  2c:	00000035 	.word	0x00000035
  30:	000002e1 	.word	0x000002e1
C:\Users\igor.hollaender\Documents\GitHub\STiM32/STiM32.c:970
        {
        case GUI_CLEAR:         //IH140319 currently identical with GUI_INITIALIZE
        case GUI_INITIALIZE:
            
            lastStimState = STIMSTATE_RUN;
  34:	4ba3      	ldr	r3, [pc, #652]	; (2c4 <GUI+0x2c4>)
  36:	2201      	movs	r2, #1
  38:	701a      	strb	r2, [r3, #0]
C:\Users\igor.hollaender\Documents\GitHub\STiM32/STiM32.c:971
            barPosX = 0;
  3a:	4ba3      	ldr	r3, [pc, #652]	; (2c8 <GUI+0x2c8>)
  3c:	2200      	movs	r2, #0
  3e:	801a      	strh	r2, [r3, #0]
C:\Users\igor.hollaender\Documents\GitHub\STiM32/STiM32.c:975
                            
            // graphics
            // These are default values
            DRAW_SetCharMagniCoeff(1);
  40:	4ba2      	ldr	r3, [pc, #648]	; (2cc <GUI+0x2cc>)
  42:	681b      	ldr	r3, [r3, #0]
  44:	f8d3 30a8 	ldr.w	r3, [r3, #168]	; 0xa8
  48:	2001      	movs	r0, #1
  4a:	4798      	blx	r3
C:\Users\igor.hollaender\Documents\GitHub\STiM32/STiM32.c:976
            DRAW_SetTextColor(RGB_WHITE);     
  4c:	4b9f      	ldr	r3, [pc, #636]	; (2cc <GUI+0x2cc>)
  4e:	681b      	ldr	r3, [r3, #0]
  50:	f8d3 30b0 	ldr.w	r3, [r3, #176]	; 0xb0
  54:	f64f 70ff 	movw	r0, #65535	; 0xffff
  58:	4798      	blx	r3
C:\Users\igor.hollaender\Documents\GitHub\STiM32/STiM32.c:977
            DRAW_SetBGndColor(STIM_LOWERPANEL_COLOR);        
  5a:	4b9c      	ldr	r3, [pc, #624]	; (2cc <GUI+0x2cc>)
  5c:	681b      	ldr	r3, [r3, #0]
  5e:	f8d3 30b8 	ldr.w	r3, [r3, #184]	; 0xb8
  62:	f248 0001 	movw	r0, #32769	; 0x8001
  66:	4798      	blx	r3
C:\Users\igor.hollaender\Documents\GitHub\STiM32/STiM32.c:980
                        
            //Lower panel
            LCD_FillRect( 
  68:	4b98      	ldr	r3, [pc, #608]	; (2cc <GUI+0x2cc>)
  6a:	681b      	ldr	r3, [r3, #0]
  6c:	f8d3 4118 	ldr.w	r4, [r3, #280]	; 0x118
  70:	f248 0301 	movw	r3, #32769	; 0x8001
  74:	9300      	str	r3, [sp, #0]
  76:	2000      	movs	r0, #0
  78:	2100      	movs	r1, #0
  7a:	22f0      	movs	r2, #240	; 0xf0
  7c:	231e      	movs	r3, #30
  7e:	47a0      	blx	r4
C:\Users\igor.hollaender\Documents\GitHub\STiM32/STiM32.c:986
                0, 0, 
                SCREEN_WIDTH, STIM_LOWERPANEL_HEIGHT, 
                STIM_LOWERPANEL_COLOR );
        
            //Middle panel
            LCD_FillRect(
  80:	4b92      	ldr	r3, [pc, #584]	; (2cc <GUI+0x2cc>)
  82:	681b      	ldr	r3, [r3, #0]
  84:	f8d3 4118 	ldr.w	r4, [r3, #280]	; 0x118
  88:	f246 1308 	movw	r3, #24840	; 0x6108
  8c:	9300      	str	r3, [sp, #0]
  8e:	2000      	movs	r0, #0
  90:	211e      	movs	r1, #30
  92:	22f0      	movs	r2, #240	; 0xf0
  94:	2396      	movs	r3, #150	; 0x96
  96:	47a0      	blx	r4
C:\Users\igor.hollaender\Documents\GitHub\STiM32/STiM32.c:992
                0, STIM_LOWERPANEL_HEIGHT, 
                SCREEN_WIDTH, STIM_MIDDLEPANEL_HEIGHT,                 
                STIM_MIDDLEPANEL_COLOR );
              
            //Upper panel
            LCD_FillRect(
  98:	4b8c      	ldr	r3, [pc, #560]	; (2cc <GUI+0x2cc>)
  9a:	681b      	ldr	r3, [r3, #0]
  9c:	f8d3 4118 	ldr.w	r4, [r3, #280]	; 0x118
  a0:	f44f 5388 	mov.w	r3, #4352	; 0x1100
  a4:	9300      	str	r3, [sp, #0]
  a6:	2000      	movs	r0, #0
  a8:	21b4      	movs	r1, #180	; 0xb4
  aa:	22f0      	movs	r2, #240	; 0xf0
  ac:	233c      	movs	r3, #60	; 0x3c
  ae:	47a0      	blx	r4
C:\Users\igor.hollaender\Documents\GitHub\STiM32/STiM32.c:998
                0, SCREEN_HEIGHT-STIM_UPPERPANEL_HEIGHT, 
                SCREEN_WIDTH, 
                STIM_UPPERPANEL_HEIGHT, 
                STIM_UPPERPANEL_COLOR );
                    
            break;
  b0:	e16b      	b.n	38a <GUI+0x38a>
C:\Users\igor.hollaender\Documents\GitHub\STiM32/STiM32.c:1003
            
        case GUI_NORMAL_UPDATE:
            
            // clear upper panel
            LCD_FillRect(
  b2:	4b86      	ldr	r3, [pc, #536]	; (2cc <GUI+0x2cc>)
  b4:	681b      	ldr	r3, [r3, #0]
  b6:	f8d3 4118 	ldr.w	r4, [r3, #280]	; 0x118
  ba:	f44f 5388 	mov.w	r3, #4352	; 0x1100
  be:	9300      	str	r3, [sp, #0]
  c0:	2000      	movs	r0, #0
  c2:	21b4      	movs	r1, #180	; 0xb4
  c4:	22f0      	movs	r2, #240	; 0xf0
  c6:	233c      	movs	r3, #60	; 0x3c
  c8:	47a0      	blx	r4
C:\Users\igor.hollaender\Documents\GitHub\STiM32/STiM32.c:1010
                SCREEN_WIDTH, 
                STIM_UPPERPANEL_HEIGHT, 
                STIM_UPPERPANEL_COLOR );
            {
            u8 str[30];        
            if(Readout.isOverloaded)
  ca:	4b81      	ldr	r3, [pc, #516]	; (2d0 <GUI+0x2d0>)
  cc:	791b      	ldrb	r3, [r3, #4]
  ce:	2b00      	cmp	r3, #0
  d0:	d00f      	beq.n	f2 <GUI+0xf2>
C:\Users\igor.hollaender\Documents\GitHub\STiM32/STiM32.c:1012
            {
                strcpy(str,"    OVERLOAD");
  d2:	f107 0208 	add.w	r2, r7, #8
  d6:	4b7f      	ldr	r3, [pc, #508]	; (2d4 <GUI+0x2d4>)
  d8:	4614      	mov	r4, r2
  da:	cb0f      	ldmia	r3, {r0, r1, r2, r3}
  dc:	c407      	stmia	r4!, {r0, r1, r2}
  de:	7023      	strb	r3, [r4, #0]
C:\Users\igor.hollaender\Documents\GitHub\STiM32/STiM32.c:1013
                PlayBeep();
  e0:	f7ff fffe 	bl	0 <GUI>
C:\Users\igor.hollaender\Documents\GitHub\STiM32/STiM32.c:1014
                DRAW_SetCharMagniCoeff(2);            
  e4:	4b79      	ldr	r3, [pc, #484]	; (2cc <GUI+0x2cc>)
  e6:	681b      	ldr	r3, [r3, #0]
  e8:	f8d3 30a8 	ldr.w	r3, [r3, #168]	; 0xa8
  ec:	2002      	movs	r0, #2
  ee:	4798      	blx	r3
  f0:	e02b      	b.n	14a <GUI+0x14a>
C:\Users\igor.hollaender\Documents\GitHub\STiM32/STiM32.c:1016
            }
            else if(StimState==STIMSTATE_IDLE || StimState==STIMSTATE_WAITING_FOR_RUN)
  f2:	4b79      	ldr	r3, [pc, #484]	; (2d8 <GUI+0x2d8>)
  f4:	781b      	ldrb	r3, [r3, #0]
  f6:	2b00      	cmp	r3, #0
  f8:	d003      	beq.n	102 <GUI+0x102>
C:\Users\igor.hollaender\Documents\GitHub\STiM32/STiM32.c:1016 (discriminator 1)
  fa:	4b77      	ldr	r3, [pc, #476]	; (2d8 <GUI+0x2d8>)
  fc:	781b      	ldrb	r3, [r3, #0]
  fe:	2b02      	cmp	r3, #2
 100:	d110      	bne.n	124 <GUI+0x124>
C:\Users\igor.hollaender\Documents\GitHub\STiM32/STiM32.c:1018
            {
                strcpy(str,"    Waiting...");
 102:	f107 0208 	add.w	r2, r7, #8
 106:	4b75      	ldr	r3, [pc, #468]	; (2dc <GUI+0x2dc>)
 108:	4614      	mov	r4, r2
 10a:	cb0f      	ldmia	r3, {r0, r1, r2, r3}
 10c:	c407      	stmia	r4!, {r0, r1, r2}
 10e:	8023      	strh	r3, [r4, #0]
 110:	3402      	adds	r4, #2
 112:	0c1b      	lsrs	r3, r3, #16
 114:	7023      	strb	r3, [r4, #0]
C:\Users\igor.hollaender\Documents\GitHub\STiM32/STiM32.c:1019
                DRAW_SetCharMagniCoeff(2);            
 116:	4b6d      	ldr	r3, [pc, #436]	; (2cc <GUI+0x2cc>)
 118:	681b      	ldr	r3, [r3, #0]
 11a:	f8d3 30a8 	ldr.w	r3, [r3, #168]	; 0xa8
 11e:	2002      	movs	r0, #2
 120:	4798      	blx	r3
 122:	e012      	b.n	14a <GUI+0x14a>
C:\Users\igor.hollaender\Documents\GitHub\STiM32/STiM32.c:1024
            }
            else
            {
                // display readout figure
                UTIL_int2str( str, Readout.CAE1, 4, FALSE);    
 124:	4b69      	ldr	r3, [pc, #420]	; (2cc <GUI+0x2cc>)
 126:	681b      	ldr	r3, [r3, #0]
 128:	f8d3 42cc 	ldr.w	r4, [r3, #716]	; 0x2cc
 12c:	f107 0208 	add.w	r2, r7, #8
 130:	4b67      	ldr	r3, [pc, #412]	; (2d0 <GUI+0x2d0>)
 132:	681b      	ldr	r3, [r3, #0]
 134:	4610      	mov	r0, r2
 136:	4619      	mov	r1, r3
 138:	2204      	movs	r2, #4
 13a:	2300      	movs	r3, #0
 13c:	47a0      	blx	r4
C:\Users\igor.hollaender\Documents\GitHub\STiM32/STiM32.c:1025
                DRAW_SetCharMagniCoeff(4);            
 13e:	4b63      	ldr	r3, [pc, #396]	; (2cc <GUI+0x2cc>)
 140:	681b      	ldr	r3, [r3, #0]
 142:	f8d3 30a8 	ldr.w	r3, [r3, #168]	; 0xa8
 146:	2004      	movs	r0, #4
 148:	4798      	blx	r3
C:\Users\igor.hollaender\Documents\GitHub\STiM32/STiM32.c:1028
            }
            
            DRAW_SetTextColor(RGB_YELLOW);     
 14a:	4b60      	ldr	r3, [pc, #384]	; (2cc <GUI+0x2cc>)
 14c:	681b      	ldr	r3, [r3, #0]
 14e:	f8d3 30b0 	ldr.w	r3, [r3, #176]	; 0xb0
 152:	f24e 00ff 	movw	r0, #57599	; 0xe0ff
 156:	4798      	blx	r3
C:\Users\igor.hollaender\Documents\GitHub\STiM32/STiM32.c:1029
            DRAW_SetBGndColor(STIM_UPPERPANEL_COLOR);        
 158:	4b5c      	ldr	r3, [pc, #368]	; (2cc <GUI+0x2cc>)
 15a:	681b      	ldr	r3, [r3, #0]
 15c:	f8d3 30b8 	ldr.w	r3, [r3, #184]	; 0xb8
 160:	f44f 5088 	mov.w	r0, #4352	; 0x1100
 164:	4798      	blx	r3
C:\Users\igor.hollaender\Documents\GitHub\STiM32/STiM32.c:1031
            
            DRAW_DisplayStringWithMode( 0,180,str, 0, NORMAL_TEXT, LEFT);            
 166:	4b59      	ldr	r3, [pc, #356]	; (2cc <GUI+0x2cc>)
 168:	681b      	ldr	r3, [r3, #0]
 16a:	f8d3 40dc 	ldr.w	r4, [r3, #220]	; 0xdc
 16e:	f107 0308 	add.w	r3, r7, #8
 172:	2200      	movs	r2, #0
 174:	9200      	str	r2, [sp, #0]
 176:	2200      	movs	r2, #0
 178:	9201      	str	r2, [sp, #4]
 17a:	2000      	movs	r0, #0
 17c:	21b4      	movs	r1, #180	; 0xb4
 17e:	461a      	mov	r2, r3
 180:	2300      	movs	r3, #0
 182:	47a0      	blx	r4
C:\Users\igor.hollaender\Documents\GitHub\STiM32/STiM32.c:1033
            
            DRAW_SetCharMagniCoeff(1);            
 184:	4b51      	ldr	r3, [pc, #324]	; (2cc <GUI+0x2cc>)
 186:	681b      	ldr	r3, [r3, #0]
 188:	f8d3 30a8 	ldr.w	r3, [r3, #168]	; 0xa8
 18c:	2001      	movs	r0, #1
 18e:	4798      	blx	r3
C:\Users\igor.hollaender\Documents\GitHub\STiM32/STiM32.c:1034
            DRAW_SetTextColor(RGB_WHITE);     
 190:	4b4e      	ldr	r3, [pc, #312]	; (2cc <GUI+0x2cc>)
 192:	681b      	ldr	r3, [r3, #0]
 194:	f8d3 30b0 	ldr.w	r3, [r3, #176]	; 0xb0
 198:	f64f 70ff 	movw	r0, #65535	; 0xffff
 19c:	4798      	blx	r3
C:\Users\igor.hollaender\Documents\GitHub\STiM32/STiM32.c:1035
            DRAW_SetBGndColor(STIM_LOWERPANEL_COLOR);        
 19e:	4b4b      	ldr	r3, [pc, #300]	; (2cc <GUI+0x2cc>)
 1a0:	681b      	ldr	r3, [r3, #0]
 1a2:	f8d3 30b8 	ldr.w	r3, [r3, #184]	; 0xb8
 1a6:	f248 0001 	movw	r0, #32769	; 0x8001
 1aa:	4798      	blx	r3
C:\Users\igor.hollaender\Documents\GitHub\STiM32/STiM32.c:1039
            }
        
            // display graphics
            switch(StimState)
 1ac:	4b4a      	ldr	r3, [pc, #296]	; (2d8 <GUI+0x2d8>)
 1ae:	781b      	ldrb	r3, [r3, #0]
 1b0:	2b03      	cmp	r3, #3
 1b2:	d873      	bhi.n	29c <GUI+0x29c>
 1b4:	a201      	add	r2, pc, #4	; (adr r2, 1bc <GUI+0x1bc>)
 1b6:	f852 f023 	ldr.w	pc, [r2, r3, lsl #2]
 1ba:	bf00      	nop
 1bc:	000001cd 	.word	0x000001cd
 1c0:	000001f5 	.word	0x000001f5
 1c4:	000001cd 	.word	0x000001cd
 1c8:	000001f5 	.word	0x000001f5
C:\Users\igor.hollaender\Documents\GitHub\STiM32/STiM32.c:1043
            {
            case STIMSTATE_IDLE:  
            case STIMSTATE_WAITING_FOR_RUN:  
                if(lastStimState!=STIMSTATE_IDLE)
 1cc:	4b3d      	ldr	r3, [pc, #244]	; (2c4 <GUI+0x2c4>)
 1ce:	781b      	ldrb	r3, [r3, #0]
 1d0:	2b00      	cmp	r3, #0
 1d2:	d00b      	beq.n	1ec <GUI+0x1ec>
C:\Users\igor.hollaender\Documents\GitHub\STiM32/STiM32.c:1046
                    {
                    //Clean middle panel
                    LCD_FillRect(
 1d4:	4b3d      	ldr	r3, [pc, #244]	; (2cc <GUI+0x2cc>)
 1d6:	681b      	ldr	r3, [r3, #0]
 1d8:	f8d3 4118 	ldr.w	r4, [r3, #280]	; 0x118
 1dc:	f246 1308 	movw	r3, #24840	; 0x6108
 1e0:	9300      	str	r3, [sp, #0]
 1e2:	2000      	movs	r0, #0
 1e4:	211e      	movs	r1, #30
 1e6:	22f0      	movs	r2, #240	; 0xf0
 1e8:	2396      	movs	r3, #150	; 0x96
 1ea:	47a0      	blx	r4
C:\Users\igor.hollaender\Documents\GitHub\STiM32/STiM32.c:1051
                        0, STIM_LOWERPANEL_HEIGHT, 
                        SCREEN_WIDTH, STIM_MIDDLEPANEL_HEIGHT,
                        STIM_MIDDLEPANEL_COLOR );                                                                           
                    }
                lastStimState = STIMSTATE_IDLE;
 1ec:	4b35      	ldr	r3, [pc, #212]	; (2c4 <GUI+0x2c4>)
 1ee:	2200      	movs	r2, #0
 1f0:	701a      	strb	r2, [r3, #0]
C:\Users\igor.hollaender\Documents\GitHub\STiM32/STiM32.c:1052
                break;
 1f2:	e053      	b.n	29c <GUI+0x29c>
C:\Users\igor.hollaender\Documents\GitHub\STiM32/STiM32.c:1056
        
            case STIMSTATE_RUN:                 
            case STIMSTATE_WAITING_FOR_IDLE:  
                if(lastStimState!=STIMSTATE_RUN)
 1f4:	4b33      	ldr	r3, [pc, #204]	; (2c4 <GUI+0x2c4>)
 1f6:	781b      	ldrb	r3, [r3, #0]
 1f8:	2b01      	cmp	r3, #1
 1fa:	d00f      	beq.n	21c <GUI+0x21c>
C:\Users\igor.hollaender\Documents\GitHub\STiM32/STiM32.c:1059
                    {
                    //Clean middle panel
                    LCD_FillRect(
 1fc:	4b33      	ldr	r3, [pc, #204]	; (2cc <GUI+0x2cc>)
 1fe:	681b      	ldr	r3, [r3, #0]
 200:	f8d3 4118 	ldr.w	r4, [r3, #280]	; 0x118
 204:	f246 1308 	movw	r3, #24840	; 0x6108
 208:	9300      	str	r3, [sp, #0]
 20a:	2000      	movs	r0, #0
 20c:	211e      	movs	r1, #30
 20e:	22f0      	movs	r2, #240	; 0xf0
 210:	2396      	movs	r3, #150	; 0x96
 212:	47a0      	blx	r4
C:\Users\igor.hollaender\Documents\GitHub\STiM32/STiM32.c:1064
                        0, STIM_LOWERPANEL_HEIGHT, 
                        SCREEN_WIDTH, STIM_MIDDLEPANEL_HEIGHT,                        
                        STIM_MIDDLEPANEL_COLOR );
                    
                    barPosX=0;
 214:	4b2c      	ldr	r3, [pc, #176]	; (2c8 <GUI+0x2c8>)
 216:	2200      	movs	r2, #0
 218:	801a      	strh	r2, [r3, #0]
 21a:	e033      	b.n	284 <GUI+0x284>
C:\Users\igor.hollaender\Documents\GitHub\STiM32/STiM32.c:1068
                    }
                else
                    {
                    u16 barHeight = Readout.CAE1 * readoutYScalingFactor;
 21c:	4b2c      	ldr	r3, [pc, #176]	; (2d0 <GUI+0x2d0>)
 21e:	681b      	ldr	r3, [r3, #0]
 220:	ee07 3a90 	vmov	s15, r3
 224:	eeb8 7a67 	vcvt.f32.u32	s14, s15
 228:	edd7 7a0a 	vldr	s15, [r7, #40]	; 0x28
 22c:	ee67 7a27 	vmul.f32	s15, s14, s15
 230:	eefc 7ae7 	vcvt.u32.f32	s15, s15
 234:	ee17 3a90 	vmov	r3, s15
 238:	84fb      	strh	r3, [r7, #38]	; 0x26
C:\Users\igor.hollaender\Documents\GitHub\STiM32/STiM32.c:1073
                    if(barHeight>STIM_MIDDLEPANEL_HEIGHT)
                        {
                        barHeight>STIM_MIDDLEPANEL_HEIGHT;
                        }
                    LCD_FillRect(
 23a:	4b24      	ldr	r3, [pc, #144]	; (2cc <GUI+0x2cc>)
 23c:	681b      	ldr	r3, [r3, #0]
 23e:	f8d3 4118 	ldr.w	r4, [r3, #280]	; 0x118
 242:	4b21      	ldr	r3, [pc, #132]	; (2c8 <GUI+0x2c8>)
 244:	881b      	ldrh	r3, [r3, #0]
 246:	461a      	mov	r2, r3
 248:	8dfb      	ldrh	r3, [r7, #46]	; 0x2e
 24a:	f64f 71ff 	movw	r1, #65535	; 0xffff
 24e:	9100      	str	r1, [sp, #0]
 250:	4610      	mov	r0, r2
 252:	211e      	movs	r1, #30
 254:	461a      	mov	r2, r3
 256:	2396      	movs	r3, #150	; 0x96
 258:	47a0      	blx	r4
C:\Users\igor.hollaender\Documents\GitHub\STiM32/STiM32.c:1077
                        barPosX, STIM_LOWERPANEL_HEIGHT, 
                        barWidth, STIM_MIDDLEPANEL_HEIGHT,                        
                        STIM_BARBG_COLOR );                    
                    LCD_FillRect(
 25a:	4b1c      	ldr	r3, [pc, #112]	; (2cc <GUI+0x2cc>)
 25c:	681b      	ldr	r3, [r3, #0]
 25e:	f8d3 4118 	ldr.w	r4, [r3, #280]	; 0x118
 262:	4b19      	ldr	r3, [pc, #100]	; (2c8 <GUI+0x2c8>)
 264:	881b      	ldrh	r3, [r3, #0]
 266:	4619      	mov	r1, r3
 268:	8dfa      	ldrh	r2, [r7, #46]	; 0x2e
 26a:	8cfb      	ldrh	r3, [r7, #38]	; 0x26
 26c:	20f8      	movs	r0, #248	; 0xf8
 26e:	9000      	str	r0, [sp, #0]
 270:	4608      	mov	r0, r1
 272:	211e      	movs	r1, #30
 274:	47a0      	blx	r4
C:\Users\igor.hollaender\Documents\GitHub\STiM32/STiM32.c:1081
                        barPosX, STIM_LOWERPANEL_HEIGHT, 
                        barWidth, barHeight,                        
                        STIM_BARFG_COLOR );                    
                    barPosX += barWidth;
 276:	4b14      	ldr	r3, [pc, #80]	; (2c8 <GUI+0x2c8>)
 278:	881a      	ldrh	r2, [r3, #0]
 27a:	8dfb      	ldrh	r3, [r7, #46]	; 0x2e
 27c:	4413      	add	r3, r2
 27e:	b29a      	uxth	r2, r3
 280:	4b11      	ldr	r3, [pc, #68]	; (2c8 <GUI+0x2c8>)
 282:	801a      	strh	r2, [r3, #0]
C:\Users\igor.hollaender\Documents\GitHub\STiM32/STiM32.c:1088
                    if(barPosX>SCREEN_WIDTH)
                        {
                        barPosX;
                        }
                    }
                lastStimState = STIMSTATE_RUN;                
 284:	4b0f      	ldr	r3, [pc, #60]	; (2c4 <GUI+0x2c4>)
 286:	2201      	movs	r2, #1
 288:	701a      	strb	r2, [r3, #0]
C:\Users\igor.hollaender\Documents\GitHub\STiM32/STiM32.c:1089
                if(barPosX>SCREEN_WIDTH)
 28a:	4b0f      	ldr	r3, [pc, #60]	; (2c8 <GUI+0x2c8>)
 28c:	881b      	ldrh	r3, [r3, #0]
 28e:	2bf0      	cmp	r3, #240	; 0xf0
 290:	d903      	bls.n	29a <GUI+0x29a>
C:\Users\igor.hollaender\Documents\GitHub\STiM32/STiM32.c:1091
                        {
                        lastStimState = STIMSTATE_IDLE;  //begin new graphics screen                
 292:	4b0c      	ldr	r3, [pc, #48]	; (2c4 <GUI+0x2c4>)
 294:	2200      	movs	r2, #0
 296:	701a      	strb	r2, [r3, #0]
C:\Users\igor.hollaender\Documents\GitHub\STiM32/STiM32.c:1093
                        }
                break;
 298:	e7ff      	b.n	29a <GUI+0x29a>
 29a:	bf00      	nop
C:\Users\igor.hollaender\Documents\GitHub\STiM32/STiM32.c:1098
                                    
            }        
                                        
            //display current settings and time
            DRAW_DisplayStringWithMode( 8,10,GetSettingsString(), 0, NORMAL_TEXT, RIGHT);            
 29c:	4b0b      	ldr	r3, [pc, #44]	; (2cc <GUI+0x2cc>)
 29e:	681b      	ldr	r3, [r3, #0]
 2a0:	f8d3 40dc 	ldr.w	r4, [r3, #220]	; 0xdc
 2a4:	f7ff fffe 	bl	0 <GUI>
 2a8:	4603      	mov	r3, r0
 2aa:	2200      	movs	r2, #0
 2ac:	9200      	str	r2, [sp, #0]
 2ae:	2202      	movs	r2, #2
 2b0:	9201      	str	r2, [sp, #4]
 2b2:	2008      	movs	r0, #8
 2b4:	210a      	movs	r1, #10
 2b6:	461a      	mov	r2, r3
 2b8:	2300      	movs	r3, #0
 2ba:	47a0      	blx	r4
C:\Users\igor.hollaender\Documents\GitHub\STiM32/STiM32.c:1100
                   
            break;            
 2bc:	e065      	b.n	38a <GUI+0x38a>
 2be:	bf00      	nop
 2c0:	3e19999a 	.word	0x3e19999a
 2c4:	00000290 	.word	0x00000290
 2c8:	00000172 	.word	0x00000172
 2cc:	00000000 	.word	0x00000000
 2d0:	0000002c 	.word	0x0000002c
 2d4:	000000dc 	.word	0x000000dc
 2d8:	00000034 	.word	0x00000034
 2dc:	000000ec 	.word	0x000000ec
C:\Users\igor.hollaender\Documents\GitHub\STiM32/STiM32.c:1104
        
        case GUI_INTRO_SCREEN:            
            
            DRAW_SetCharMagniCoeff(2);
 2e0:	4b2b      	ldr	r3, [pc, #172]	; (390 <GUI+0x390>)
 2e2:	681b      	ldr	r3, [r3, #0]
 2e4:	f8d3 30a8 	ldr.w	r3, [r3, #168]	; 0xa8
 2e8:	2002      	movs	r0, #2
 2ea:	4798      	blx	r3
C:\Users\igor.hollaender\Documents\GitHub\STiM32/STiM32.c:1105
            DRAW_SetTextColor(RGB_GREEN);                 
 2ec:	4b28      	ldr	r3, [pc, #160]	; (390 <GUI+0x390>)
 2ee:	681b      	ldr	r3, [r3, #0]
 2f0:	f8d3 30b0 	ldr.w	r3, [r3, #176]	; 0xb0
 2f4:	f24e 0007 	movw	r0, #57351	; 0xe007
 2f8:	4798      	blx	r3
C:\Users\igor.hollaender\Documents\GitHub\STiM32/STiM32.c:1107
            
            LCD_FillRect(
 2fa:	4b25      	ldr	r3, [pc, #148]	; (390 <GUI+0x390>)
 2fc:	681b      	ldr	r3, [r3, #0]
 2fe:	f8d3 4118 	ldr.w	r4, [r3, #280]	; 0x118
 302:	f640 03fc 	movw	r3, #2300	; 0x8fc
 306:	9300      	str	r3, [sp, #0]
 308:	2000      	movs	r0, #0
 30a:	2100      	movs	r1, #0
 30c:	22f0      	movs	r2, #240	; 0xf0
 30e:	23f0      	movs	r3, #240	; 0xf0
 310:	47a0      	blx	r4
C:\Users\igor.hollaender\Documents\GitHub\STiM32/STiM32.c:1112
            0, 0, 
            SCREEN_WIDTH, SCREEN_HEIGHT,                 
            RGB_ORANGE );
            
            DRAW_DisplayStringWithMode( 0,180,"STiM32", ALL_SCREEN, INVERTED_TEXT, CENTER);            
 312:	4b1f      	ldr	r3, [pc, #124]	; (390 <GUI+0x390>)
 314:	681b      	ldr	r3, [r3, #0]
 316:	f8d3 40dc 	ldr.w	r4, [r3, #220]	; 0xdc
 31a:	4b1e      	ldr	r3, [pc, #120]	; (394 <GUI+0x394>)
 31c:	2201      	movs	r2, #1
 31e:	9200      	str	r2, [sp, #0]
 320:	2201      	movs	r2, #1
 322:	9201      	str	r2, [sp, #4]
 324:	2000      	movs	r0, #0
 326:	21b4      	movs	r1, #180	; 0xb4
 328:	461a      	mov	r2, r3
 32a:	f04f 33ff 	mov.w	r3, #4294967295
 32e:	47a0      	blx	r4
C:\Users\igor.hollaender\Documents\GitHub\STiM32/STiM32.c:1113
            DRAW_SetCharMagniCoeff(1);
 330:	4b17      	ldr	r3, [pc, #92]	; (390 <GUI+0x390>)
 332:	681b      	ldr	r3, [r3, #0]
 334:	f8d3 30a8 	ldr.w	r3, [r3, #168]	; 0xa8
 338:	2001      	movs	r0, #1
 33a:	4798      	blx	r3
C:\Users\igor.hollaender\Documents\GitHub\STiM32/STiM32.c:1114
            DRAW_DisplayStringWithMode( 0,160,STIM32_VERSION, ALL_SCREEN, INVERTED_TEXT, CENTER);            
 33c:	4b14      	ldr	r3, [pc, #80]	; (390 <GUI+0x390>)
 33e:	681b      	ldr	r3, [r3, #0]
 340:	f8d3 40dc 	ldr.w	r4, [r3, #220]	; 0xdc
 344:	4b14      	ldr	r3, [pc, #80]	; (398 <GUI+0x398>)
 346:	2201      	movs	r2, #1
 348:	9200      	str	r2, [sp, #0]
 34a:	2201      	movs	r2, #1
 34c:	9201      	str	r2, [sp, #4]
 34e:	2000      	movs	r0, #0
 350:	21a0      	movs	r1, #160	; 0xa0
 352:	461a      	mov	r2, r3
 354:	f04f 33ff 	mov.w	r3, #4294967295
 358:	47a0      	blx	r4
C:\Users\igor.hollaender\Documents\GitHub\STiM32/STiM32.c:1116
        
            DRAW_SetCharMagniCoeff(1);
 35a:	4b0d      	ldr	r3, [pc, #52]	; (390 <GUI+0x390>)
 35c:	681b      	ldr	r3, [r3, #0]
 35e:	f8d3 30a8 	ldr.w	r3, [r3, #168]	; 0xa8
 362:	2001      	movs	r0, #1
 364:	4798      	blx	r3
C:\Users\igor.hollaender\Documents\GitHub\STiM32/STiM32.c:1117
            DRAW_DisplayStringWithMode( 0,100,GetBatteryStatusString(), ALL_SCREEN, NORMAL_TEXT, CENTER);            
 366:	4b0a      	ldr	r3, [pc, #40]	; (390 <GUI+0x390>)
 368:	681b      	ldr	r3, [r3, #0]
 36a:	f8d3 40dc 	ldr.w	r4, [r3, #220]	; 0xdc
 36e:	f7ff fffe 	bl	0 <GUI>
 372:	4603      	mov	r3, r0
 374:	2200      	movs	r2, #0
 376:	9200      	str	r2, [sp, #0]
 378:	2201      	movs	r2, #1
 37a:	9201      	str	r2, [sp, #4]
 37c:	2000      	movs	r0, #0
 37e:	2164      	movs	r1, #100	; 0x64
 380:	461a      	mov	r2, r3
 382:	f04f 33ff 	mov.w	r3, #4294967295
 386:	47a0      	blx	r4
C:\Users\igor.hollaender\Documents\GitHub\STiM32/STiM32.c:1118
            break;                                                     
 388:	bf00      	nop
C:\Users\igor.hollaender\Documents\GitHub\STiM32/STiM32.c:1120
        }
    }
 38a:	3734      	adds	r7, #52	; 0x34
 38c:	46bd      	mov	sp, r7
 38e:	bd90      	pop	{r4, r7, pc}
 390:	00000000 	.word	0x00000000
 394:	000000fc 	.word	0x000000fc
 398:	00000104 	.word	0x00000104

Disassembly of section .text.SetAutorun:

00000000 <SetAutorun>:
SetAutorun():
C:\Users\igor.hollaender\Documents\GitHub\STiM32/STiM32.c:1129
* Description    : Sets the bit 7 in SYS2 backup register to autorun this application 
* Input          : None                     
* Return         : None
*******************************************************************************/
static void SetAutorun(void)
    {
   0:	b480      	push	{r7}
   2:	af00      	add	r7, sp, #0
C:\Users\igor.hollaender\Documents\GitHub\STiM32/STiM32.c:1131
        //IH150125 the autorun is currently set in the CircleOS menu
    }
   4:	46bd      	mov	sp, r7
   6:	f85d 7b04 	ldr.w	r7, [sp], #4
   a:	4770      	bx	lr

Disassembly of section .text.BackUpParameters:

00000000 <BackUpParameters>:
BackUpParameters():
C:\Users\igor.hollaender\Documents\GitHub\STiM32/STiM32.c:1134

static void BackUpParameters(void)
{   
   0:	b580      	push	{r7, lr}
   2:	af00      	add	r7, sp, #0
C:\Users\igor.hollaender\Documents\GitHub\STiM32/STiM32.c:1135
    UTIL_WriteBackupRegister (BKP_FREQUENCY, PulseSeq.frequency);
   4:	4b0e      	ldr	r3, [pc, #56]	; (40 <BackUpParameters+0x40>)
   6:	681b      	ldr	r3, [r3, #0]
   8:	f8d3 32d8 	ldr.w	r3, [r3, #728]	; 0x2d8
   c:	4a0d      	ldr	r2, [pc, #52]	; (44 <BackUpParameters+0x44>)
   e:	7812      	ldrb	r2, [r2, #0]
  10:	2007      	movs	r0, #7
  12:	4611      	mov	r1, r2
  14:	4798      	blx	r3
C:\Users\igor.hollaender\Documents\GitHub\STiM32/STiM32.c:1136
    UTIL_WriteBackupRegister (BKP_PULSESEQ, PulseSeq.pulseSeq);
  16:	4b0a      	ldr	r3, [pc, #40]	; (40 <BackUpParameters+0x40>)
  18:	681b      	ldr	r3, [r3, #0]
  1a:	f8d3 32d8 	ldr.w	r3, [r3, #728]	; 0x2d8
  1e:	4a09      	ldr	r2, [pc, #36]	; (44 <BackUpParameters+0x44>)
  20:	7852      	ldrb	r2, [r2, #1]
  22:	2008      	movs	r0, #8
  24:	4611      	mov	r1, r2
  26:	4798      	blx	r3
C:\Users\igor.hollaender\Documents\GitHub\STiM32/STiM32.c:1137
    UTIL_WriteBackupRegister (BKP_PULSEPEAKVOLTAGE, PulseSeq.peakVoltage);
  28:	4b05      	ldr	r3, [pc, #20]	; (40 <BackUpParameters+0x40>)
  2a:	681b      	ldr	r3, [r3, #0]
  2c:	f8d3 32d8 	ldr.w	r3, [r3, #728]	; 0x2d8
  30:	4a04      	ldr	r2, [pc, #16]	; (44 <BackUpParameters+0x44>)
  32:	7892      	ldrb	r2, [r2, #2]
  34:	2009      	movs	r0, #9
  36:	4611      	mov	r1, r2
  38:	4798      	blx	r3
C:\Users\igor.hollaender\Documents\GitHub\STiM32/STiM32.c:1139

return;
  3a:	bf00      	nop
C:\Users\igor.hollaender\Documents\GitHub\STiM32/STiM32.c:1140
}
  3c:	bd80      	pop	{r7, pc}
  3e:	bf00      	nop
  40:	00000000 	.word	0x00000000
  44:	00000004 	.word	0x00000004

Disassembly of section .text.RestoreParameters:

00000000 <RestoreParameters>:
RestoreParameters():
C:\Users\igor.hollaender\Documents\GitHub\STiM32/STiM32.c:1143

static void RestoreParameters(void)
{
   0:	b580      	push	{r7, lr}
   2:	b084      	sub	sp, #16
   4:	af00      	add	r7, sp, #0
C:\Users\igor.hollaender\Documents\GitHub\STiM32/STiM32.c:1144
    u32 p_Frequency             = UTIL_ReadBackupRegister (BKP_FREQUENCY);
   6:	4b1d      	ldr	r3, [pc, #116]	; (7c <RestoreParameters+0x7c>)
   8:	681b      	ldr	r3, [r3, #0]
   a:	f8d3 32d4 	ldr.w	r3, [r3, #724]	; 0x2d4
   e:	2007      	movs	r0, #7
  10:	4798      	blx	r3
  12:	60f8      	str	r0, [r7, #12]
C:\Users\igor.hollaender\Documents\GitHub\STiM32/STiM32.c:1145
    u32 p_PulseSeq              = UTIL_ReadBackupRegister (BKP_PULSESEQ);
  14:	4b19      	ldr	r3, [pc, #100]	; (7c <RestoreParameters+0x7c>)
  16:	681b      	ldr	r3, [r3, #0]
  18:	f8d3 32d4 	ldr.w	r3, [r3, #724]	; 0x2d4
  1c:	2008      	movs	r0, #8
  1e:	4798      	blx	r3
  20:	60b8      	str	r0, [r7, #8]
C:\Users\igor.hollaender\Documents\GitHub\STiM32/STiM32.c:1146
    u32 p_PulsePeakVoltage      = UTIL_ReadBackupRegister (BKP_PULSEPEAKVOLTAGE);
  22:	4b16      	ldr	r3, [pc, #88]	; (7c <RestoreParameters+0x7c>)
  24:	681b      	ldr	r3, [r3, #0]
  26:	f8d3 32d4 	ldr.w	r3, [r3, #724]	; 0x2d4
  2a:	2009      	movs	r0, #9
  2c:	4798      	blx	r3
  2e:	6078      	str	r0, [r7, #4]
C:\Users\igor.hollaender\Documents\GitHub\STiM32/STiM32.c:1149

    // set defaults if backup not valid
    if(p_Frequency>0)           { PulseSeq.frequency = p_Frequency;         }  else  { PulseSeq.frequency = FREQUENCY_1KHZ; }
  30:	68fb      	ldr	r3, [r7, #12]
  32:	2b00      	cmp	r3, #0
  34:	d004      	beq.n	40 <RestoreParameters+0x40>
C:\Users\igor.hollaender\Documents\GitHub\STiM32/STiM32.c:1149 (discriminator 1)
  36:	68fb      	ldr	r3, [r7, #12]
  38:	b2da      	uxtb	r2, r3
  3a:	4b11      	ldr	r3, [pc, #68]	; (80 <RestoreParameters+0x80>)
  3c:	701a      	strb	r2, [r3, #0]
  3e:	e002      	b.n	46 <RestoreParameters+0x46>
C:\Users\igor.hollaender\Documents\GitHub\STiM32/STiM32.c:1149 (discriminator 2)
  40:	4b0f      	ldr	r3, [pc, #60]	; (80 <RestoreParameters+0x80>)
  42:	2201      	movs	r2, #1
  44:	701a      	strb	r2, [r3, #0]
C:\Users\igor.hollaender\Documents\GitHub\STiM32/STiM32.c:1150
    if(p_PulseSeq>0)            { PulseSeq.pulseSeq = p_PulseSeq;           }  else  { PulseSeq.pulseSeq  = PULSESEQUENCE_1;  }
  46:	68bb      	ldr	r3, [r7, #8]
  48:	2b00      	cmp	r3, #0
  4a:	d004      	beq.n	56 <RestoreParameters+0x56>
C:\Users\igor.hollaender\Documents\GitHub\STiM32/STiM32.c:1150 (discriminator 1)
  4c:	68bb      	ldr	r3, [r7, #8]
  4e:	b2da      	uxtb	r2, r3
  50:	4b0b      	ldr	r3, [pc, #44]	; (80 <RestoreParameters+0x80>)
  52:	705a      	strb	r2, [r3, #1]
  54:	e002      	b.n	5c <RestoreParameters+0x5c>
C:\Users\igor.hollaender\Documents\GitHub\STiM32/STiM32.c:1150 (discriminator 2)
  56:	4b0a      	ldr	r3, [pc, #40]	; (80 <RestoreParameters+0x80>)
  58:	2201      	movs	r2, #1
  5a:	705a      	strb	r2, [r3, #1]
C:\Users\igor.hollaender\Documents\GitHub\STiM32/STiM32.c:1151
    if(p_PulsePeakVoltage>0)    { PulseSeq.peakVoltage = p_PulsePeakVoltage;}  else  { PulseSeq.peakVoltage  = PULSEPEAKVOLTAGE_8V
  5c:	687b      	ldr	r3, [r7, #4]
  5e:	2b00      	cmp	r3, #0
  60:	d004      	beq.n	6c <RestoreParameters+0x6c>
C:\Users\igor.hollaender\Documents\GitHub\STiM32/STiM32.c:1151 (discriminator 1)
  62:	687b      	ldr	r3, [r7, #4]
  64:	b2da      	uxtb	r2, r3
  66:	4b06      	ldr	r3, [pc, #24]	; (80 <RestoreParameters+0x80>)
  68:	709a      	strb	r2, [r3, #2]
  6a:	e002      	b.n	72 <RestoreParameters+0x72>
C:\Users\igor.hollaender\Documents\GitHub\STiM32/STiM32.c:1151 (discriminator 2)
  6c:	4b04      	ldr	r3, [pc, #16]	; (80 <RestoreParameters+0x80>)
  6e:	2201      	movs	r2, #1
  70:	709a      	strb	r2, [r3, #2]
C:\Users\igor.hollaender\Documents\GitHub\STiM32/STiM32.c:1155
    ;  }

                
    return;
  72:	bf00      	nop
C:\Users\igor.hollaender\Documents\GitHub\STiM32/STiM32.c:1156
}
  74:	3710      	adds	r7, #16
  76:	46bd      	mov	sp, r7
  78:	bd80      	pop	{r7, pc}
  7a:	bf00      	nop
  7c:	00000000 	.word	0x00000000
  80:	00000004 	.word	0x00000004

Disassembly of section .text.GetSettingsString:

00000000 <GetSettingsString>:
GetSettingsString():
C:\Users\igor.hollaender\Documents\GitHub\STiM32/STiM32.c:1159

static char* GetSettingsString(void)
    {
   0:	b590      	push	{r4, r7, lr}
   2:	b08b      	sub	sp, #44	; 0x2c
   4:	af00      	add	r7, sp, #0
C:\Users\igor.hollaender\Documents\GitHub\STiM32/STiM32.c:1165
        char *frequency_string;
        char *pulseSeq_string;
        char *peakVoltage_string;
        char time_string[6];
    
        switch(PulseSeq.frequency)
   6:	4b57      	ldr	r3, [pc, #348]	; (164 <GetSettingsString+0x164>)
   8:	781b      	ldrb	r3, [r3, #0]
   a:	2b02      	cmp	r3, #2
   c:	d006      	beq.n	1c <GetSettingsString+0x1c>
   e:	2b03      	cmp	r3, #3
  10:	d007      	beq.n	22 <GetSettingsString+0x22>
  12:	2b01      	cmp	r3, #1
  14:	d108      	bne.n	28 <GetSettingsString+0x28>
C:\Users\igor.hollaender\Documents\GitHub\STiM32/STiM32.c:1168
        {
            case FREQUENCY_1KHZ:
                    frequency_string = "1kHz";                    
  16:	4b54      	ldr	r3, [pc, #336]	; (168 <GetSettingsString+0x168>)
  18:	627b      	str	r3, [r7, #36]	; 0x24
C:\Users\igor.hollaender\Documents\GitHub\STiM32/STiM32.c:1169
                    break;
  1a:	e005      	b.n	28 <GetSettingsString+0x28>
C:\Users\igor.hollaender\Documents\GitHub\STiM32/STiM32.c:1171
            case FREQUENCY_2KHZ:
                    frequency_string = "2kHz";                    
  1c:	4b53      	ldr	r3, [pc, #332]	; (16c <GetSettingsString+0x16c>)
  1e:	627b      	str	r3, [r7, #36]	; 0x24
C:\Users\igor.hollaender\Documents\GitHub\STiM32/STiM32.c:1172
                    break;
  20:	e002      	b.n	28 <GetSettingsString+0x28>
C:\Users\igor.hollaender\Documents\GitHub\STiM32/STiM32.c:1174
            case FREQUENCY_3KHZ:
                    frequency_string = "3kHz";                    
  22:	4b53      	ldr	r3, [pc, #332]	; (170 <GetSettingsString+0x170>)
  24:	627b      	str	r3, [r7, #36]	; 0x24
C:\Users\igor.hollaender\Documents\GitHub\STiM32/STiM32.c:1175
                    break;
  26:	bf00      	nop
C:\Users\igor.hollaender\Documents\GitHub\STiM32/STiM32.c:1178
        }
    
        switch(PulseSeq.pulseSeq)
  28:	4b4e      	ldr	r3, [pc, #312]	; (164 <GetSettingsString+0x164>)
  2a:	785b      	ldrb	r3, [r3, #1]
  2c:	3b01      	subs	r3, #1
  2e:	2b03      	cmp	r3, #3
  30:	d816      	bhi.n	60 <GetSettingsString+0x60>
  32:	a201      	add	r2, pc, #4	; (adr r2, 38 <GetSettingsString+0x38>)
  34:	f852 f023 	ldr.w	pc, [r2, r3, lsl #2]
  38:	00000049 	.word	0x00000049
  3c:	0000004f 	.word	0x0000004f
  40:	00000055 	.word	0x00000055
  44:	0000005b 	.word	0x0000005b
C:\Users\igor.hollaender\Documents\GitHub\STiM32/STiM32.c:1181
        {
            case PULSESEQUENCE_1:
                    pulseSeq_string = "Seq1";                    
  48:	4b4a      	ldr	r3, [pc, #296]	; (174 <GetSettingsString+0x174>)
  4a:	623b      	str	r3, [r7, #32]
C:\Users\igor.hollaender\Documents\GitHub\STiM32/STiM32.c:1182
                    break;
  4c:	e008      	b.n	60 <GetSettingsString+0x60>
C:\Users\igor.hollaender\Documents\GitHub\STiM32/STiM32.c:1184
            case PULSESEQUENCE_2:
                    pulseSeq_string = "Seq2";                    
  4e:	4b4a      	ldr	r3, [pc, #296]	; (178 <GetSettingsString+0x178>)
  50:	623b      	str	r3, [r7, #32]
C:\Users\igor.hollaender\Documents\GitHub\STiM32/STiM32.c:1185
                    break;
  52:	e005      	b.n	60 <GetSettingsString+0x60>
C:\Users\igor.hollaender\Documents\GitHub\STiM32/STiM32.c:1187
            case PULSESEQUENCE_3:
                    pulseSeq_string = "Seq3";                    
  54:	4b49      	ldr	r3, [pc, #292]	; (17c <GetSettingsString+0x17c>)
  56:	623b      	str	r3, [r7, #32]
C:\Users\igor.hollaender\Documents\GitHub\STiM32/STiM32.c:1188
                    break;
  58:	e002      	b.n	60 <GetSettingsString+0x60>
C:\Users\igor.hollaender\Documents\GitHub\STiM32/STiM32.c:1190
            case PULSESEQUENCE_4:
                    pulseSeq_string = "Seq4";                    
  5a:	4b49      	ldr	r3, [pc, #292]	; (180 <GetSettingsString+0x180>)
  5c:	623b      	str	r3, [r7, #32]
C:\Users\igor.hollaender\Documents\GitHub\STiM32/STiM32.c:1191
                    break;
  5e:	bf00      	nop
C:\Users\igor.hollaender\Documents\GitHub\STiM32/STiM32.c:1194
        }
    
        switch(PulseSeq.peakVoltage)
  60:	4b40      	ldr	r3, [pc, #256]	; (164 <GetSettingsString+0x164>)
  62:	789b      	ldrb	r3, [r3, #2]
  64:	2b02      	cmp	r3, #2
  66:	d006      	beq.n	76 <GetSettingsString+0x76>
  68:	2b03      	cmp	r3, #3
  6a:	d007      	beq.n	7c <GetSettingsString+0x7c>
  6c:	2b01      	cmp	r3, #1
  6e:	d108      	bne.n	82 <GetSettingsString+0x82>
C:\Users\igor.hollaender\Documents\GitHub\STiM32/STiM32.c:1197
        {
            case PULSEPEAKVOLTAGE_8V:
                    peakVoltage_string = "8V";                    
  70:	4b44      	ldr	r3, [pc, #272]	; (184 <GetSettingsString+0x184>)
  72:	61fb      	str	r3, [r7, #28]
C:\Users\igor.hollaender\Documents\GitHub\STiM32/STiM32.c:1198
                    break;
  74:	e005      	b.n	82 <GetSettingsString+0x82>
C:\Users\igor.hollaender\Documents\GitHub\STiM32/STiM32.c:1200
            case PULSEPEAKVOLTAGE_6V:
                    peakVoltage_string = "6V";                    
  76:	4b44      	ldr	r3, [pc, #272]	; (188 <GetSettingsString+0x188>)
  78:	61fb      	str	r3, [r7, #28]
C:\Users\igor.hollaender\Documents\GitHub\STiM32/STiM32.c:1201
                    break;
  7a:	e002      	b.n	82 <GetSettingsString+0x82>
C:\Users\igor.hollaender\Documents\GitHub\STiM32/STiM32.c:1203
            case PULSEPEAKVOLTAGE_4V:
                    peakVoltage_string = "4V";                    
  7c:	4b43      	ldr	r3, [pc, #268]	; (18c <GetSettingsString+0x18c>)
  7e:	61fb      	str	r3, [r7, #28]
C:\Users\igor.hollaender\Documents\GitHub\STiM32/STiM32.c:1204
                    break;
  80:	bf00      	nop
C:\Users\igor.hollaender\Documents\GitHub\STiM32/STiM32.c:1211

        {
        u32 THH, TMM, TSS;
        char mm_string[3];
        char ss_string[3];
        RTC_GetTime (&THH, &TMM, &TSS);
  82:	4b43      	ldr	r3, [pc, #268]	; (190 <GetSettingsString+0x190>)
  84:	681b      	ldr	r3, [r3, #0]
  86:	f8d3 3304 	ldr.w	r3, [r3, #772]	; 0x304
  8a:	f107 0010 	add.w	r0, r7, #16
  8e:	f107 010c 	add.w	r1, r7, #12
  92:	f107 0208 	add.w	r2, r7, #8
  96:	4798      	blx	r3
C:\Users\igor.hollaender\Documents\GitHub\STiM32/STiM32.c:1212
        UTIL_int2str( mm_string, TMM, 2, TRUE);    
  98:	4b3d      	ldr	r3, [pc, #244]	; (190 <GetSettingsString+0x190>)
  9a:	681b      	ldr	r3, [r3, #0]
  9c:	f8d3 42cc 	ldr.w	r4, [r3, #716]	; 0x2cc
  a0:	1d3a      	adds	r2, r7, #4
  a2:	68fb      	ldr	r3, [r7, #12]
  a4:	4610      	mov	r0, r2
  a6:	4619      	mov	r1, r3
  a8:	2202      	movs	r2, #2
  aa:	2301      	movs	r3, #1
  ac:	47a0      	blx	r4
C:\Users\igor.hollaender\Documents\GitHub\STiM32/STiM32.c:1213
        UTIL_int2str( ss_string, TSS, 2, TRUE);    
  ae:	4b38      	ldr	r3, [pc, #224]	; (190 <GetSettingsString+0x190>)
  b0:	681b      	ldr	r3, [r3, #0]
  b2:	f8d3 42cc 	ldr.w	r4, [r3, #716]	; 0x2cc
  b6:	463a      	mov	r2, r7
  b8:	68bb      	ldr	r3, [r7, #8]
  ba:	4610      	mov	r0, r2
  bc:	4619      	mov	r1, r3
  be:	2202      	movs	r2, #2
  c0:	2301      	movs	r3, #1
  c2:	47a0      	blx	r4
C:\Users\igor.hollaender\Documents\GitHub\STiM32/STiM32.c:1214
        strcpy(time_string, mm_string);   
  c4:	f107 0214 	add.w	r2, r7, #20
  c8:	1d3b      	adds	r3, r7, #4
  ca:	4610      	mov	r0, r2
  cc:	4619      	mov	r1, r3
  ce:	f7ff fffe 	bl	0 <strcpy>
C:\Users\igor.hollaender\Documents\GitHub\STiM32/STiM32.c:1215
        strcat(time_string,":");    
  d2:	f107 0314 	add.w	r3, r7, #20
  d6:	4618      	mov	r0, r3
  d8:	f7ff fffe 	bl	0 <strlen>
  dc:	4603      	mov	r3, r0
  de:	f107 0214 	add.w	r2, r7, #20
  e2:	4413      	add	r3, r2
  e4:	4a2b      	ldr	r2, [pc, #172]	; (194 <GetSettingsString+0x194>)
  e6:	8812      	ldrh	r2, [r2, #0]
  e8:	801a      	strh	r2, [r3, #0]
C:\Users\igor.hollaender\Documents\GitHub\STiM32/STiM32.c:1216
        strcat(time_string, ss_string);    //IH150128 BUG here: space between : and ss_string (??)
  ea:	f107 0214 	add.w	r2, r7, #20
  ee:	463b      	mov	r3, r7
  f0:	4610      	mov	r0, r2
  f2:	4619      	mov	r1, r3
  f4:	f7ff fffe 	bl	0 <strcat>
C:\Users\igor.hollaender\Documents\GitHub\STiM32/STiM32.c:1222
        //IH150128 Hours are ignored
        }
        
    
        // max string lenght is SETTINGS_STRING_LENGHT
        strcpy(SettingsStatusString, frequency_string); // lenght = 4
  f8:	4827      	ldr	r0, [pc, #156]	; (198 <GetSettingsString+0x198>)
  fa:	6a79      	ldr	r1, [r7, #36]	; 0x24
  fc:	f7ff fffe 	bl	0 <strcpy>
C:\Users\igor.hollaender\Documents\GitHub\STiM32/STiM32.c:1223
        strcat(SettingsStatusString, "   ");            // lenght = 3
 100:	4825      	ldr	r0, [pc, #148]	; (98 <strlen+0x98>)
 102:	f7ff fffe 	bl	0 <strlen>
 106:	4603      	mov	r3, r0
 108:	461a      	mov	r2, r3
 10a:	4b23      	ldr	r3, [pc, #140]	; (198 <GetSettingsString+0x198>)
 10c:	4413      	add	r3, r2
 10e:	4a23      	ldr	r2, [pc, #140]	; (19c <GetSettingsString+0x19c>)
 110:	6810      	ldr	r0, [r2, #0]
 112:	6018      	str	r0, [r3, #0]
C:\Users\igor.hollaender\Documents\GitHub\STiM32/STiM32.c:1224
        strcat(SettingsStatusString, pulseSeq_string);  // length = 4
 114:	4820      	ldr	r0, [pc, #128]	; (198 <GetSettingsString+0x198>)
 116:	6a39      	ldr	r1, [r7, #32]
 118:	f7ff fffe 	bl	0 <strcat>
C:\Users\igor.hollaender\Documents\GitHub\STiM32/STiM32.c:1225
        strcat(SettingsStatusString, "   ");            // lenght = 3
 11c:	481e      	ldr	r0, [pc, #120]	; (7c <strlen+0x7c>)
 11e:	f7ff fffe 	bl	0 <strlen>
 122:	4603      	mov	r3, r0
 124:	461a      	mov	r2, r3
 126:	4b1c      	ldr	r3, [pc, #112]	; (198 <GetSettingsString+0x198>)
 128:	4413      	add	r3, r2
 12a:	4a1c      	ldr	r2, [pc, #112]	; (19c <GetSettingsString+0x19c>)
 12c:	6810      	ldr	r0, [r2, #0]
 12e:	6018      	str	r0, [r3, #0]
C:\Users\igor.hollaender\Documents\GitHub\STiM32/STiM32.c:1226
        strcat(SettingsStatusString, peakVoltage_string);  // length = 2
 130:	4819      	ldr	r0, [pc, #100]	; (198 <GetSettingsString+0x198>)
 132:	69f9      	ldr	r1, [r7, #28]
 134:	f7ff fffe 	bl	0 <strcat>
C:\Users\igor.hollaender\Documents\GitHub\STiM32/STiM32.c:1227
        strcat(SettingsStatusString, "   ");            // lenght = 3
 138:	4817      	ldr	r0, [pc, #92]	; (60 <strlen+0x60>)
 13a:	f7ff fffe 	bl	0 <strlen>
 13e:	4603      	mov	r3, r0
 140:	461a      	mov	r2, r3
 142:	4b15      	ldr	r3, [pc, #84]	; (198 <GetSettingsString+0x198>)
 144:	4413      	add	r3, r2
 146:	4a15      	ldr	r2, [pc, #84]	; (19c <GetSettingsString+0x19c>)
 148:	6810      	ldr	r0, [r2, #0]
 14a:	6018      	str	r0, [r3, #0]
C:\Users\igor.hollaender\Documents\GitHub\STiM32/STiM32.c:1228
        strcat(SettingsStatusString, time_string);      // length = 5
 14c:	f107 0314 	add.w	r3, r7, #20
 150:	4811      	ldr	r0, [pc, #68]	; (198 <GetSettingsString+0x198>)
 152:	4619      	mov	r1, r3
 154:	f7ff fffe 	bl	0 <strcat>
C:\Users\igor.hollaender\Documents\GitHub\STiM32/STiM32.c:1230
    
        return SettingsStatusString;
 158:	4b0f      	ldr	r3, [pc, #60]	; (198 <GetSettingsString+0x198>)
C:\Users\igor.hollaender\Documents\GitHub\STiM32/STiM32.c:1231
    }
 15a:	4618      	mov	r0, r3
 15c:	372c      	adds	r7, #44	; 0x2c
 15e:	46bd      	mov	sp, r7
 160:	bd90      	pop	{r4, r7, pc}
 162:	bf00      	nop
 164:	00000004 	.word	0x00000004
 168:	0000010c 	.word	0x0000010c
 16c:	00000114 	.word	0x00000114
 170:	0000011c 	.word	0x0000011c
 174:	00000124 	.word	0x00000124
 178:	0000012c 	.word	0x0000012c
 17c:	00000134 	.word	0x00000134
 180:	0000013c 	.word	0x0000013c
 184:	00000144 	.word	0x00000144
 188:	00000148 	.word	0x00000148
 18c:	0000014c 	.word	0x0000014c
 190:	00000000 	.word	0x00000000
 194:	00000150 	.word	0x00000150
 198:	00000144 	.word	0x00000144
 19c:	00000154 	.word	0x00000154

Disassembly of section .text.GetBatteryStatusString:

00000000 <GetBatteryStatusString>:
GetBatteryStatusString():
C:\Users\igor.hollaender\Documents\GitHub\STiM32/STiM32.c:1234

static char* GetBatteryStatusString(void)
    {
   0:	b580      	push	{r7, lr}
   2:	b082      	sub	sp, #8
   4:	af00      	add	r7, sp, #0
C:\Users\igor.hollaender\Documents\GitHub\STiM32/STiM32.c:1235
        u16 vbat_mV = UTIL_GetBat();
   6:	4b0e      	ldr	r3, [pc, #56]	; (40 <GetBatteryStatusString+0x40>)
   8:	681b      	ldr	r3, [r3, #0]
   a:	f8d3 32dc 	ldr.w	r3, [r3, #732]	; 0x2dc
   e:	4798      	blx	r3
  10:	4603      	mov	r3, r0
  12:	80fb      	strh	r3, [r7, #6]
C:\Users\igor.hollaender\Documents\GitHub\STiM32/STiM32.c:1238
        
        // max string lenght is BATTERY_STATUS_STRING_LENGHT
        strcpy(BatteryStatusString, "Battery OK");
  14:	4b0b      	ldr	r3, [pc, #44]	; (44 <GetBatteryStatusString+0x44>)
  16:	4a0c      	ldr	r2, [pc, #48]	; (48 <GetBatteryStatusString+0x48>)
  18:	ca07      	ldmia	r2, {r0, r1, r2}
  1a:	c303      	stmia	r3!, {r0, r1}
  1c:	801a      	strh	r2, [r3, #0]
  1e:	3302      	adds	r3, #2
  20:	0c12      	lsrs	r2, r2, #16
  22:	701a      	strb	r2, [r3, #0]
C:\Users\igor.hollaender\Documents\GitHub\STiM32/STiM32.c:1239
        if(vbat_mV<VBAT_MV_LOW)
  24:	88fb      	ldrh	r3, [r7, #6]
  26:	f5b3 6f7a 	cmp.w	r3, #4000	; 0xfa0
  2a:	d204      	bcs.n	36 <GetBatteryStatusString+0x36>
C:\Users\igor.hollaender\Documents\GitHub\STiM32/STiM32.c:1241
        {
            strcpy(BatteryStatusString, "Battery LOW");
  2c:	4b05      	ldr	r3, [pc, #20]	; (44 <GetBatteryStatusString+0x44>)
  2e:	4a07      	ldr	r2, [pc, #28]	; (4c <GetBatteryStatusString+0x4c>)
  30:	ca07      	ldmia	r2, {r0, r1, r2}
  32:	e883 0007 	stmia.w	r3, {r0, r1, r2}
C:\Users\igor.hollaender\Documents\GitHub\STiM32/STiM32.c:1244
        }
    
        return BatteryStatusString;
  36:	4b03      	ldr	r3, [pc, #12]	; (44 <GetBatteryStatusString+0x44>)
C:\Users\igor.hollaender\Documents\GitHub\STiM32/STiM32.c:1245
    }
  38:	4618      	mov	r0, r3
  3a:	3708      	adds	r7, #8
  3c:	46bd      	mov	sp, r7
  3e:	bd80      	pop	{r7, pc}
  40:	00000000 	.word	0x00000000
  44:	0000013c 	.word	0x0000013c
  48:	00000158 	.word	0x00000158
  4c:	00000164 	.word	0x00000164

Disassembly of section .text.PlayBeep:

00000000 <PlayBeep>:
PlayBeep():
C:\Users\igor.hollaender\Documents\GitHub\STiM32/STiM32.c:1248

static void PlayBeep(void)
{
   0:	b580      	push	{r7, lr}
   2:	b082      	sub	sp, #8
   4:	af00      	add	r7, sp, #0
C:\Users\igor.hollaender\Documents\GitHub\STiM32/STiM32.c:1251
    //IH150128 TODO this takes too long, we need a short buzzer beep here

    u8 *beepMusic ="beep1:d=32,o=6,b=900:e";
   6:	4b06      	ldr	r3, [pc, #24]	; (20 <PlayBeep+0x20>)
   8:	607b      	str	r3, [r7, #4]
C:\Users\igor.hollaender\Documents\GitHub\STiM32/STiM32.c:1252
    BUZZER_PlayMusic(beepMusic);
   a:	4b06      	ldr	r3, [pc, #24]	; (24 <PlayBeep+0x24>)
   c:	681b      	ldr	r3, [r3, #0]
   e:	f8d3 3248 	ldr.w	r3, [r3, #584]	; 0x248
  12:	687a      	ldr	r2, [r7, #4]
  14:	4610      	mov	r0, r2
  16:	4798      	blx	r3
C:\Users\igor.hollaender\Documents\GitHub\STiM32/STiM32.c:1253
  18:	3708      	adds	r7, #8
  1a:	46bd      	mov	sp, r7
  1c:	bd80      	pop	{r7, pc}
  1e:	bf00      	nop
  20:	00000170 	.word	0x00000170
  24:	00000000 	.word	0x00000000
